(lp0
Vnech
p1
aVkabergoline
p2
aVkabol
p3
aVouttejona
p4
aVbahirea
p5
aVdhoromer
p6
aVbahiry
p7
aVbahirya
p8
aVmajhesajhe
p9
aVbahsa
p10
aVnpv
p11
aVmajhemoddhe
p12
aVpermently
p13
aVdhorgondho
p14
aVmajhai
p15
aVovakries
p16
aVmajge
p17
aVnely
p18
aVmaiyader
p19
aVdhonir
p20
aVtamana
p21
aVsetaa
p22
aVnoyonito
p23
aVkacse
p24
aVtakya
p25
aVproblemz
p26
aVmajeda
p27
aVmajee
p28
aVdhorapore
p29
aVbairhoy
p30
aVsetaw
p31
aVdhordhoroner
p32
aVnema
p33
aVmaisik
p34
aVbahihira
p35
aVkabergolin
p36
aVnripple
p37
aVdhuklei
p38
aVtakikh
p39
aVdhukie
p40
aVousodher
p41
aVdhukhaiaa
p42
aVmakay
p43
aVjznzbenai
p44
aVnreast
p45
aVsexkori
p46
aVousukhar
p47
aVdhukainai
p48
aVvangla
p49
aVkaalke
p50
aVdhuka
p51
aVkaaro
p52
aVpersaber
p53
aVbahek
p54
aVouter
p55
aVdhower
p56
aVoute
p57
aVperolex
p58
aVkabaar
p59
aVbahhjik
p60
aVpersabe
p61
aVmajkaner
p62
aVdhuate
p63
aVbagina
p64
aVbaghat
p65
aVdhuine
p66
aVkaat
p67
aVbagume
p68
aVbajon
p69
aVbajy
p70
aVvanca
p71
aVdhakaii
p72
aVdhakachhi
p73
aVkaitha
p74
aVperiof
p75
aVtansona
p76
aVovecare
p77
aVbamdiktay
p78
aVdgore
p79
aVdgare
p80
aVdeynai
p81
aVmadik
p82
aVdeykhlm
p83
aVserokm
p84
aVmadicn
p85
aVdeyey
p86
aVdeyasa
p87
aVkajkrmer
p88
aVtapke
p89
aVmadhe
p90
aVdevice
p91
aVkaku
p92
aVbandube
p93
aVperiodcal
p94
aVmadroxy
p95
aVbandober
p96
aVserbe
p97
aVkakhn
p98
aVnotuba
p99
aVbandha
p100
aVdeyacelo
p101
aVseriesly
p102
aVporoi
p103
aVtanshany
p104
aVdhaker
p105
aVmaeader
p106
aVnovoborso
p107
aVovarey
p108
aVdhele
p109
aVmaidar
p110
aVsesobe
p111
aVdhiey
p112
aVdhekhiesi
p113
aVovarer
p114
aVdhira
p115
aVkahaoar
p116
aVovare
p117
aVovarary
p118
aVmainer
p119
aVnowadays
p120
aVmaiha
p121
aVtakhs
p122
aVdhekhale
p123
aVkaibo
p124
aVdhakese
p125
aVkainu
p126
aVmafic
p127
aVdhanmodi
p128
aVkailai
p129
aVsesheer
p130
aVseshole
p131
aVdharalo
p132
aVkaiecilo
p133
aVkaico
p134
aVdhaut
p135
aVproblemr
p136
aVkaicelam
p137
aVdhekacchi
p138
aVdhardhar
p139
aVtakhoni
p140
aVjurk
p141
aVdhush
p142
aVjotesa
p143
aVmansopndo
p144
aVbabea
p145
aVpetbetha
p146
aVdilatation
p147
aVdiktay
p148
aVprocap
p149
aVdikgulu
p150
aVdikata
p151
aVqust
p152
aVdieyecen
p153
aVotto
p154
aVmanojea
p155
aVbabura
p156
aVdiechilen
p157
aVprocab
p158
aVjouc
p159
aVnegtve
p160
aVottur
p161
aVdicmencarite
p162
aVjounangor
p163
aVdidiye
p164
aVtahoilay
p165
aVdiln
p166
aVtahohle
p167
aVshadi
p168
aVdieacilo
p169
aVdieaia
p170
aVjounaggar
p171
aVjounagar
p172
aVmanikgonj
p173
aVtaho
p174
aVbabayo
p175
aVmant
p176
aVjotasomoye
p177
aVquk
p178
aVdinermathay
p179
aVdinero
p180
aVjormor
p181
aVmanushera
p182
aVdinne
p183
aVtableta
p184
aVazin
p185
aVazimpur
p186
aVdintheke
p187
aVvavy
p188
aVdiprosal
p189
aVjorio
p190
aVshakane
p191
aVdinteke
p192
aVjounee
p193
aVmanuse
p194
aVdinapure
p195
aVshahparan
p196
aVtabtet
p197
aVdime
p198
aVjorure
p199
aVvatore
p200
aVmanthy
p201
aVbaabortion
p202
aVdimvanu
p203
aVmanual
p204
aVjorsea
p205
aVtabolban
p206
aVshahrin
p207
aVshaila
p208
aVbaacchaa
p209
aVjorta
p210
aVmadesin
p211
aVmanes
p212
aVdiciln
p213
aVtairox
p214
aVshaashutbari
p215
aVporotome
p216
aVtaivami
p217
aVdiaselan
p218
aVpesanor
p219
aVdiasee
p220
aVjuily
p221
aVmalignancy
p222
aVbackache
p223
aVsezarey
p224
aVjukipurno
p225
aVvant
p226
aVdiagonostic
p227
aVbacsin
p228
aVnskin
p229
aVbadal
p230
aVtakho
p231
aVtakhle
p232
aVpersina
p233
aVmakhate
p234
aVtakes
p235
aVporoshkar
p236
aVdibatics
p237
aVdiacelam
p238
aVjumping
p239
aVporosober
p240
aVjulyr
p241
aVjulu
p242
aVdiacilm
p243
aVseyrokome
p244
aVdiacelo
p245
aVbachata
p246
aVproblms
p247
aVbachano
p248
aVjowna
p249
aVproblrm
p250
aVshabavikcilo
p251
aVtaicon
p252
aVnubummor
p253
aVdichchhen
p254
aVdicchy
p255
aVdichha
p256
aVjounoggir
p257
aVbaccao
p258
aVmanea
p259
aVjounoggi
p260
aVshadar
p261
aVshadashrab
p262
aVmandatory
p263
aVjoungo
p264
aVneiini
p265
aVjownaggo
p266
aVvarginar
p267
aVbachaka
p268
aVjsob
p269
aVnth
p270
aVractopth
p271
aVjrontrona
p272
aVjownagger
p273
aVjoynno
p274
aVpescribed
p275
aVshababhik
p276
aVpescription
p277
aVntta
p278
aVjowoinanggo
p279
aVoudud
p280
aVjoydeppur
p281
aVnupur
p282
aVkakuya
p283
aVbangay
p284
aVnerdesso
p285
aVdekade
p286
aVnornens
p287
aVseizer
p288
aVnornal
p289
aVdejaisi
p290
aVseivabe
p291
aVnormrnse
p292
aVtecena
p293
aVdeieche
p294
aVvabchy
p295
aVdeiar
p296
aVlojjie
p297
aVdehydration
p298
aVseist
p299
aVseiporiman
p300
aVnormmens
p301
aVnorminc
p302
aVvabcchi
p303
aVporlactin
p304
aVbavoher
p305
aVkatafalani
p306
aVkatachera
p307
aVdekaile
p308
aVdecilam
p309
aVkasshi
p310
aVnormix
p311
aVoysomoy
p312
aVloggar
p313
aVoyr
p314
aVoyeche
p315
aVkaswo
p316
aVpaaasa
p317
aVdekaini
p318
aVtchara
p319
aVnorphill
p320
aVrastha
p321
aVkarjokojor
p322
aVlonai
p323
aVdekhanur
p324
aVprobio
p325
aVvabselam
p326
aVnorphil
p327
aVsekissa
p328
aVbasst
p329
aVnepkin
p330
aVdekhaisa
p331
aVnepkinei
p332
aVvabo
p333
aVdekhaic
p334
aVowsoder
p335
aVkaroa
p336
aVsejanno
p337
aVdekanur
p338
aVbatchar
p339
aVbatcha
p340
aVdekavo
p341
aVpregmency
p342
aVratai
p343
aVdekeiche
p344
aVdekhaasi
p345
aVnoromozoosparmia
p346
aVbasye
p347
aVpormarse
p348
aVdekhachha
p349
aVbasun
p350
aVdekesen
p351
aVdecembore
p352
aVdecemberer
p353
aVdecembera
p354
aVbeahi
p355
aVbeair
p356
aVutyjito
p357
aVbeao
p358
aVdcotor
p359
aVdclo
p360
aVdche
p361
aVtench
p362
aVtended
p363
aVbebah
p364
aVbebahita
p365
aVporjontoo
p366
aVdayetto
p367
aVnormeanes
p368
aVkauyale
p369
aVkauyar
p370
aVtenge
p371
aVsecretions
p372
aVbecoze
p373
aVdatha
p374
aVbecher
p375
aVdats
p376
aVkayacelo
p377
aVdctrtr
p378
aVbecejeto
p379
aVdatusrab
p380
aVtensen
p381
aVkawka
p382
aVtensation
p383
aVkawanur
p384
aVkawaile
p385
aVkayace
p386
aVlipkis
p387
aVddermatologist
p388
aVkatse
p389
aVbboyos
p390
aVsegestion
p391
aVdeatils
p392
aVporkka
p393
aVpeothom
p394
aVliukeria
p395
aVpeoshno
p396
aVpaak
p397
aVnormention
p398
aVljja
p399
aVdecci
p400
aVkatassi
p401
aVbaysi
p402
aVbayse
p403
aVkatben
p404
aVdekhatei
p405
aVdeasilam
p406
aVdeasi
p407
aVddiner
p408
aVddu
p409
aVliqouriya
p410
aVdeahe
p411
aVdeakhiyacilam
p412
aVtellme
p413
aVvaage
p414
aVbchr
p415
aVbchore
p416
aVbchor
p417
aVliquoriya
p418
aVkatinno
p419
aVseger
p420
aVdeashe
p421
aVbchorer
p422
aVsekr
p423
aVtateki
p424
aVpojunto
p425
aVbaracha
p426
aVpojjntu
p427
aVvajaina
p428
aVpergnency
p429
aVmaap
p430
aVmaanshar
p431
aVtarekhai
p432
aVrama
p433
aVvairus
p434
aVdeowr
p435
aVmaaik
p436
aVdeodorant
p437
aVkamrun
p438
aVmaaa
p439
aVdeoai
p440
aVtarick
p441
aVtariikh
p442
aVkanore
p443
aVlutfun
p444
aVkanoo
p445
aVkanohoi
p446
aVdemon
p447
aVkaniz
p448
aVbaraca
p449
aVvaiar
p450
aVovoido
p451
aVlymphocytes
p452
aVpojjontho
p453
aVdengue
p454
aVpergent
p455
aVtarikay
p456
aVperfct
p457
aVvajainar
p458
aVdepp
p459
aVsemtoms
p460
aVkalobab
p461
aVbanglish
p462
aVmacik
p463
aVdesio
p464
aVsensual
p465
aVsentar
p466
aVneomit
p467
aVoveryan
p468
aVkalkata
p469
aVdetao
p470
aVovero
p471
aVseptmber
p472
aVbangge
p473
aVkalas
p474
aVdestroyed
p475
aVdelivered
p476
aVdesili
p477
aVbaniya
p478
aVnostto
p479
aVsending
p480
aVmaasik
p481
aVtaratriden
p482
aVperider
p483
aVvalbar
p484
aVmachin
p485
aVkamdanor
p486
aVperids
p487
aVkambe
p488
aVneontrok
p489
aVbantuna
p490
aVdesce
p491
aVperieobs
p492
aVdermas
p493
aVseray
p494
aVdelivere
p495
aVdelivart
p496
aVvaga
p497
aVloza
p498
aVlowest
p499
aVprobl
p500
aVdekhiyese
p501
aVbasaai
p502
aVbasaite
p503
aVdekhitese
p504
aVvacsin
p505
aVtarrik
p506
aVbasata
p507
aVtartari
p508
aVkarala
p509
aVdekhiacilo
p510
aVvaccination
p511
aVkarano
p512
aVtartary
p513
aVkarise
p514
aVowosd
p515
aVtasnim
p516
aVownk
p517
aVdekheasi
p518
aVownek
p519
aVlrg
p520
aVkarat
p521
aVdekheyase
p522
aVrastaa
p523
aVnepala
p524
aVdekhhlam
p525
aVperd
p526
aVtartikh
p527
aVdekhesilam
p528
aVtarpir
p529
aVtarpare
p530
aVovulotion
p531
aVlucoria
p532
aVtarilk
p533
aVtarikya
p534
aVprobldm
p535
aVvagianal
p536
aVdeley
p537
aVluckoria
p538
aVlukoria
p539
aVvaginosis
p540
aVbarhoy
p541
aVtarikhyar
p542
aVdelibary
p543
aVkanp
p544
aVlupi
p545
aVlumi
p546
aVkanow
p547
aVdelea
p548
aVselowar
p549
aVdekhteo
p550
aVneoumeto
p551
aVdekhtesina
p552
aVkaoyano
p553
aVbarsher
p554
aVdekiecilam
p555
aVseloyar
p556
aVdekiyaci
p557
aVdekiyece
p558
aVkaole
p559
aVovuclo
p560
aVkaoka
p561
aVtarkhier
p562
aVlucan
p563
aVdekiyacilam
p564
aVkaymon
p565
aVjorey
p566
aVporriman
p567
aVsuggestionn
p568
aVosodhta
p569
aVvijje
p570
aVsuggezt
p571
aVectasia
p572
aVosohonio
p573
aVmazkhane
p574
aVvijhe
p575
aVsuggsst
p576
aVobosho
p577
aVeco
p578
aVechuk
p579
aVechotexure
p580
aVechoic
p581
aVoboshisto
p582
aVecarao
p583
aVosomye
p584
aVphisical
p585
aVsukaba
p586
aVoborsta
p587
aVjenn
p588
aVjemun
p589
aVeaya
p590
aVmdans
p591
aVpuroputi
p592
aVpodhotita
p593
aVaschu
p594
aVnci
p595
aVebog
p596
aVsujesion
p597
aVjela
p598
aVvigainar
p599
aVmayb
p600
aVvijte
p601
aVeeffect
p602
aVsuddo
p603
aVnaz
p604
aVeichara
p605
aVarthikvabe
p606
aVeibarer
p607
aVmeanc
p608
aVarticalta
p609
aVarticaltai
p610
aVehse
p611
aVehakbe
p612
aVjbot
p613
aVjcche
p614
aVjcci
p615
aVpuratai
p616
aVsudhrabo
p617
aVjchhe
p618
aVjde
p619
aVefaynal
p620
aVeffeck
p621
aVmdicn
p622
aVasalamalikum
p623
aVeffet
p624
aVpodhhoti
p625
aVedhoroner
p626
aVosobida
p627
aVeger
p628
aVegla
p629
aVasacelo
p630
aVasabdanotai
p631
aVegola
p632
aVosobid
p633
aVegaki
p634
aVeakhono
p635
aVjesokol
p636
aVaseke
p637
aVvhorat
p638
aVosse
p639
aVsukkanu
p640
aVdurcintai
p641
aVsukorci
p642
aVjholdi
p643
aVdurbao
p644
aVashoala
p645
aVossojokor
p646
aVossonkko
p647
aVsukto
p648
aVobk
p649
aVjhortse
p650
aVduoure
p651
aVsheami
p652
aVossosto
p653
aVossoti
p654
aVphate
p655
aVashva
p656
aVdukca
p657
aVmathadhora
p658
aVdukenai
p659
aVdukhca
p660
aVdurghontojukto
p661
aVdukhe
p662
aVdukher
p663
aVdukhtese
p664
aVjiba
p665
aVdul
p666
aVshbsmhw
p667
aVduma
p668
aVdukheni
p669
aVossa
p670
aVprchna
p671
aVjhkon
p672
aVsukalam
p673
aVashababik
p674
aVdyer
p675
aVaseya
p676
aVsukaitesi
p677
aVjetho
p678
aVjeymon
p679
aVmayaa
p680
aVmayabar
p681
aVsukaini
p682
aVphillips
p683
aVdysfunctional
p684
aVaselo
p685
aVsukaici
p686
aVdykise
p687
aVjayto
p688
aVashasha
p689
aVosostio
p690
aVmatrittojonito
p691
aVvhoto
p692
aVdurgundho
p693
aVjhimuni
p694
aVmatte
p695
aVashclo
p696
aVsukhae
p697
aVashcilo
p698
aVdurrutto
p699
aVsukheay
p700
aVvhugsey
p701
aVosostti
p702
aVashcey
p703
aVosostita
p704
aVsukhice
p705
aVjaytece
p706
aVjayte
p707
aVsuddently
p708
aVoshohoniyo
p709
aVprocondu
p710
aVshith
p711
aVjaoai
p712
aVmeins
p713
aVmeils
p714
aVshist
p715
aVjaoia
p716
aVjaonago
p717
aVvitamindiasee
p718
aVoshojjonio
p719
aVoshontohsto
p720
aVshis
p721
aVjaoyer
p722
aVapppi
p723
aVstreeer
p724
aVstreer
p725
aVposabe
p726
aVjascaaa
p727
aVjarur
p728
aVjarue
p729
aVjarpash
p730
aVapuamak
p731
aVpuding
p732
aVmefeperston
p733
aVektukom
p734
aVstrees
p735
aVjarayo
p736
aVshirothcut
p737
aVmeghlar
p738
aVappropriate
p739
aVektuh
p740
aVemashe
p741
aVembrace
p742
aVaponer
p743
aVvitoee
p744
aVemnithe
p745
aVjannor
p746
aVemny
p747
aVstoon
p748
aVjannat
p749
aVemnitey
p750
aVstono
p751
aVjanll
p752
aVjanlei
p753
aVstoll
p754
aVenarzi
p755
aVprocundo
p756
aVpial
p757
aVapnarai
p758
aVoshu
p759
aVstopos
p760
aVmeleai
p761
aVprayed
p762
aVobstetricians
p763
aVaponader
p764
aVmelames
p765
aVemecon
p766
aVjantona
p767
aVpublish
p768
aVjantey
p769
aVemidiately
p770
aVjantaparlam
p771
aVapnni
p772
aVstored
p773
aVshmusha
p774
aVjanssi
p775
aVjantechyecilan
p776
aVsumosa
p777
aVobostta
p778
aVmedroxi
p779
aVsubidhe
p780
aVjavar
p781
aVmedchine
p782
aVekbaree
p783
aVpunno
p784
aVarmaje
p785
aVarme
p786
aVobostayo
p787
aVshikhine
p788
aVejono
p789
aVejonneo
p790
aVmeayader
p791
aVjaws
p792
aVeitoh
p793
aVeithout
p794
aVeither
p795
aVmeather
p796
aVmeanstrition
p797
aVporya
p798
aVeijinish
p799
aVmeara
p800
aVarporeo
p801
aVmease
p802
aVarjent
p803
aVosilai
p804
aVarota
p805
aVeipparjanta
p806
aVeirche
p807
aVoshyavabik
p808
aVarolom
p809
aVarokon
p810
aVeimas
p811
aVsubidhajonok
p812
aVekdinei
p813
aVekdmome
p814
aVpulp
p815
aVjatiou
p816
aVviscer
p817
aVmedicinedaeeniishudhuu
p818
aVarci
p819
aVoshudta
p820
aVmediciin
p821
aVarcha
p822
aVekhuni
p823
aVjatasa
p824
aVmedir
p825
aVeknu
p826
aVmedisine
p827
aVekoni
p828
aVjateeee
p829
aVekporjaye
p830
aVoshukhi
p831
aVobosthangoto
p832
aVekdo
p833
aVphusical
p834
aVekdui
p835
aVphusicly
p836
aVsubhecha
p837
aVareolar
p838
aVekhetyrre
p839
aVareola
p840
aVjatuku
p841
aVekeyi
p842
aVpune
p843
aVekh
p844
aVekhaneki
p845
aVmedication
p846
aVoshurto
p847
aVdirghosthai
p848
aVshbabik
p849
aVdujonari
p850
aVattested
p851
aVattior
p852
aVjonepother
p853
aVdkr
p854
aVjonere
p855
aVattobissash
p856
aVsuthe
p857
aVjonetho
p858
aVveginer
p859
aVjonha
p860
aVshamporko
p861
aVqmi
p862
aVmarttok
p863
aVmartey
p864
aVdkhanu
p865
aVsutto
p866
aVpetu
p867
aVsuvvassah
p868
aVdiyesilan
p869
aVdiyey
p870
aVjoniross
p871
aVnwar
p872
aVothisto
p873
aVnyc
p874
aVdkaka
p875
aVqsntti
p876
aVpetti
p877
aVothirikto
p878
aVjoninpotar
p879
aVdkhaicilm
p880
aVdkhaiclm
p881
aVsuuggest
p882
aVdiyesan
p883
aVdlc
p884
aVdly
p885
aVjomn
p886
aVdocy
p887
aVnyomito
p888
aVqaisi
p889
aVpeyad
p890
aVdoctoreer
p891
aVsuspect
p892
aVdoctorar
p893
aVdocto
p894
aVqastion
p895
aVmaseik
p896
aVqatar
p897
aVatokhon
p898
aVdocorto
p899
aVpevitin
p900
aVqatare
p901
aVdoay
p902
aVjonanita
p903
aVdmop
p904
aVmasaf
p905
aVmasai
p906
aVmasaik
p907
aVshanta
p908
aVsut
p909
aVdno
p910
aVqeeat
p911
aVatrasnowgram
p912
aVjonanagger
p913
aVmasat
p914
aVmasb
p915
aVpreagnanci
p916
aVmasao
p917
aVausad
p918
aVvegainate
p919
aVauthentic
p920
aVmarble
p921
aVporsea
p922
aVporscarab
p923
aVshamadhan
p924
aVjonuni
p925
aVshalie
p926
aVaxilla
p927
aVjoraeou
p928
aVjorahu
p929
aVjoraiota
p930
aVjoraiur
p931
aVsystembolechen
p932
aVjoraiyute
p933
aVjoralo
p934
aVaybr
p935
aVsytom
p936
aVayesha
p937
aVnurbus
p938
aVjorayurr
p939
aVjorayurjodi
p940
aVquesti
p941
aVdisadvantages
p942
aVjorayou
p943
aVsymton
p944
aVayr
p945
aVjorayota
p946
aVmaraktok
p947
aVaykhono
p948
aVaykhne
p949
aVayjonno
p950
aVjorauir
p951
aVjorayote
p952
aVdistrab
p953
aVjonpriyo
p954
aVjonpoth
p955
aVnuvista
p956
aVothova
p957
aVjonmoniyontrok
p958
aVdixe
p959
aVdiyacha
p960
aVdiyacilo
p961
aVjonner
p962
aVavabsi
p963
aVswasthysommot
p964
aVswarna
p965
aVjonmir
p966
aVjonmecilo
p967
aVdiyech
p968
aVnvtg
p969
aVmarrd
p970
aVdode
p971
aVavent
p972
aVjonnir
p973
aVmarc
p974
aVmarchbnd
p975
aVavrotion
p976
aVsymptomp
p977
aVporselo
p978
aVavoson
p979
aVmaristopes
p980
aVothtece
p981
aVjonnyo
p982
aVditasn
p983
aVswx
p984
aVmarikh
p985
aVditheo
p986
aVditiyoto
p987
aVnutrionist
p988
aVmasgulote
p989
aVvengeii
p990
aVdodin
p991
aVjitechena
p992
aVsunjii
p993
aVobebahita
p994
aVaspected
p995
aVshatay
p996
aVjkhoni
p997
aVshastto
p998
aVdrees
p999
aVdreast
p1000
aVsunsilam
p1001
aVdrar
p1002
aVobbosthatei
p1003
aVjnbeo
p1004
aVosukar
p1005
aVshass
p1006
aVvetoreo
p1007
aVjnnne
p1008
aVasslamulaikum
p1009
aVasslamualai
p1010
aVobar
p1011
aVshartece
p1012
aVmasssag
p1013
aVjocche
p1014
aVjirapod
p1015
aVdota
p1016
aVsupojitor
p1017
aVobasted
p1018
aVassche
p1019
aVobasthai
p1020
aVosuntoso
p1021
aVdovayn
p1022
aVdoth
p1023
aVasonkho
p1024
aVsunenni
p1025
aVosudgulor
p1026
aVjilli
p1027
aVobi
p1028
aVduibela
p1029
aVsunc
p1030
aVportey
p1031
aVosucsho
p1032
aVmasura
p1033
aVaslamulaikum
p1034
aVsunase
p1035
aVmaterbate
p1036
aVporthekei
p1037
aVosubeda
p1038
aVprchondo
p1039
aVmatfocil
p1040
aVsunben
p1041
aVdosages
p1042
aVdugital
p1043
aVdudo
p1044
aVduber
p1045
aVasolae
p1046
aVduct
p1047
aVdudar
p1048
aVportesilo
p1049
aVasobr
p1050
aVduek
p1051
aVasobki
p1052
aVnease
p1053
aVobhalution
p1054
aVvhabir
p1055
aVnearo
p1056
aVdudhu
p1057
aVosudeo
p1058
aVdudg
p1059
aVjido
p1060
aVdorsoner
p1061
aVsupportive
p1062
aVshard
p1063
aVmashikir
p1064
aVporsya
p1065
aVotea
p1066
aVotenai
p1067
aVoter
p1068
aVoami
p1069
aVdoll
p1070
aVdokya
p1071
aVmashic
p1072
aVsharap
p1073
aVsharanu
p1074
aVvergina
p1075
aVjolla
p1076
aVveralgin
p1077
aVpyrovit
p1078
aVothale
p1079
aVprochobdo
p1080
aVvengesey
p1081
aVdoekar
p1082
aVshap
p1083
aVvenggay
p1084
aVsusaster
p1085
aVmashikk
p1086
aVathodin
p1087
aVmashak
p1088
aVprochodo
p1089
aVpodokkap
p1090
aVvengne
p1091
aVjolto
p1092
aVoakon
p1093
aVmashaik
p1094
aVotchit
p1095
aVmasier
p1096
aVshareer
p1097
aVmaskiker
p1098
aVmaso
p1099
aVmasom
p1100
aVdorghondo
p1101
aVsurah
p1102
aVshariri
p1103
aVsurbe
p1104
aVjogol
p1105
aVdormo
p1106
aVassure
p1107
aVmassas
p1108
aVsuppozitor
p1109
aVdorone
p1110
aVmasse
p1111
aVdormeo
p1112
aVassosti
p1113
aVdoree
p1114
aVdorce
p1115
aVotcha
p1116
aVoasapasi
p1117
aVnebalon
p1118
aVjokhm
p1119
aVpeyeo
p1120
aVdopash
p1121
aVastheasea
p1122
aVmasique
p1123
aVasthon
p1124
aVpvt
p1125
aVjoinanger
p1126
aVdoran
p1127
aVmaskhik
p1128
aVjoilota
p1129
aVmasisk
p1130
aVmenace
p1131
aVkayta
p1132
aVsecreation
p1133
aVsagection
p1134
aVkoear
p1135
aVkoechi
p1136
aVkoedin
p1137
aVprescripta
p1138
aVceyst
p1139
aVceyecen
p1140
aVsafly
p1141
aVkrcln
p1142
aVbojboo
p1143
aVbojbu
p1144
aVporecchi
p1145
aVcesare
p1146
aVrick
p1147
aVkoiekber
p1148
aVkoir
p1149
aVtoradol
p1150
aVrifa
p1151
aVsadsrab
p1152
aVcemon
p1153
aVkokhbono
p1154
aVbojiye
p1155
aVcenar
p1156
aVsagession
p1157
aVbojinai
p1158
aVcentai
p1159
aVtorika
p1160
aVniriho
p1161
aVcepa
p1162
aVsadto
p1163
aVuncomfort
p1164
aVtorir
p1165
aVbojtace
p1166
aVkodn
p1167
aVparhoyese
p1168
aVparenai
p1169
aVparenchyma
p1170
aVchaippa
p1171
aVparene
p1172
aVporecilam
p1173
aVchailo
p1174
aVunfortunatly
p1175
aVkritggo
p1176
aVchailey
p1177
aVchailen
p1178
aVporecih
p1179
aVtolper
p1180
aVrevitile
p1181
aVchaidha
p1182
aVunexpectd
p1183
aVtolpethe
p1184
aVtolpeto
p1185
aVkrecilo
p1186
aVboisisto
p1187
aVkodak
p1188
aVuncontrollable
p1189
aVkochit
p1190
aVpargnece
p1191
aVsagest
p1192
aVboirs
p1193
aVnirodak
p1194
aVboiln
p1195
aVboilage
p1196
aVboila
p1197
aVkobiraz
p1198
aVkobey
p1199
aVpargnanci
p1200
aVsadly
p1201
aVbojtecina
p1202
aVsadi
p1203
aVbolaselo
p1204
aVbolasen
p1205
aVcassa
p1206
aVkoyekjn
p1207
aVbolasrn
p1208
aVnirdashonay
p1209
aVsadaki
p1210
aVcarriage
p1211
aVcarpasa
p1212
aVnirchentor
p1213
aVkomateki
p1214
aVkoyeak
p1215
aVkoydib
p1216
aVkoyce
p1217
aVpatience
p1218
aVultrasonw
p1219
aVultrasonote
p1220
aVkomleo
p1221
aVcancerer
p1222
aVrimiatar
p1223
aVultrasonograite
p1224
aVsabina
p1225
aVultrasonograph
p1226
aVniei
p1227
aVultrasonographi
p1228
aVcanser
p1229
aVnieomito
p1230
aVcanver
p1231
aVpathye
p1232
aVnirapodey
p1233
aVcaple
p1234
aVparmamet
p1235
aVkomace
p1236
aVniecilam
p1237
aVultrsonography
p1238
aVceevit
p1239
aVkolamela
p1240
aVkokuno
p1241
aVcegara
p1242
aVbokechilm
p1243
aVsadhashrp
p1244
aVcee
p1245
aVkpronro
p1246
aVrigullar
p1247
aVnirdristho
p1248
aVkokkhno
p1249
aVkokhonui
p1250
aVcelayder
p1251
aVceldero
p1252
aVkokokhono
p1253
aVtolateo
p1254
aVboktay
p1255
aVsaddam
p1256
aVtotobare
p1257
aVsadasraer
p1258
aVsadasrap
p1259
aVkolyflowar
p1260
aVkoykegi
p1261
aVcayehan
p1262
aVceasarian
p1263
aVkoykta
p1264
aVcayni
p1265
aVbolaci
p1266
aVkoyor
p1267
aVtothoti
p1268
aVccacchi
p1269
aVccheler
p1270
aVkolos
p1271
aVknti
p1272
aVchaitay
p1273
aVreverto
p1274
aVbleeeding
p1275
aVbleiding
p1276
aVchiche
p1277
aVnissa
p1278
aVchhita
p1279
aVparakite
p1280
aVcheyey
p1281
aVtissuer
p1282
aVrestart
p1283
aVkijonno
p1284
aVktesiii
p1285
aVkten
p1286
aVcheycen
p1287
aVunprotest
p1288
aVtjhake
p1289
aVchesen
p1290
aVbllod
p1291
aVkinting
p1292
aVkins
p1293
aVnishwash
p1294
aVkinechi
p1295
aVbloid
p1296
aVkshte
p1297
aVbleedng
p1298
aVkslo
p1299
aVblocked
p1300
aVparamorsha
p1301
aVnisilen
p1302
aVchentitho
p1303
aVparamocho
p1304
aVnicely
p1305
aVksrone
p1306
aVbleedingvhoar
p1307
aVprenal
p1308
aVbleedind
p1309
aVkuchkiteo
p1310
aVtiplei
p1311
aVunusual
p1312
aVtipbo
p1313
aVtipay
p1314
aVblat
p1315
aVpayce
p1316
aVtipatipi
p1317
aVkujbn
p1318
aVchimty
p1319
aVkichukha
p1320
aVtipai
p1321
aVchincine
p1322
aVkichuitei
p1323
aVniccit
p1324
aVbloodin
p1325
aVblchen
p1326
aVtipsilo
p1327
aVrespnse
p1328
aVchickassar
p1329
aVchickssa
p1330
aVkuab
p1331
aVreson
p1332
aVchidrota
p1333
aVkuchkite
p1334
aVkubh
p1335
aVsalie
p1336
aVchiketsa
p1337
aVchikitshadhin
p1338
aVkubsabdana
p1339
aVparacitamle
p1340
aVblciln
p1341
aVblechilo
p1342
aVkomleoo
p1343
aVparapyrol
p1344
aVnichche
p1345
aVkivabo
p1346
aVnischina
p1347
aVbochorage
p1348
aVkivb
p1349
aVsaider
p1350
aVbocilo
p1351
aVboco
p1352
aVnisana
p1353
aVkiyal
p1354
aVnichilm
p1355
aVchamrata
p1356
aVsahs
p1357
aVkkhnw
p1358
aVchamoch
p1359
aVbodhi
p1360
aVkrobo
p1361
aVchaltese
p1362
aVsaharanjan
p1363
aVsahatu
p1364
aVchakup
p1365
aVklrte
p1366
aVtokhoney
p1367
aVporekai
p1368
aVchapla
p1369
aVparcy
p1370
aVbodlate
p1371
aVkkom
p1372
aVkkokn
p1373
aVretushrab
p1374
aVchalse
p1375
aVunio
p1376
aVbodley
p1377
aVchapte
p1378
aVkivabb
p1379
aVsaii
p1380
aVchateceno
p1381
aVunmried
p1382
aVkishori
p1383
aVbluddy
p1384
aVbltn
p1385
aVresumam
p1386
aVchassiii
p1387
aVcheast
p1388
aVbls
p1389
aVkintuhotat
p1390
aVchekietsha
p1391
aVchekistsha
p1392
aVtkno
p1393
aVsakha
p1394
aVkintw
p1395
aVkintow
p1396
aVbngla
p1397
aVchasii
p1398
aVpawanor
p1399
aVparchay
p1400
aVbobs
p1401
aVpreodar
p1402
aVunmarriade
p1403
aVkisy
p1404
aVprimacap
p1405
aVunmarride
p1406
aVcharpasei
p1407
aVcharpasha
p1408
aVparca
p1409
aVbobdo
p1410
aVtobebam
p1411
aVunmeride
p1412
aVcharidike
p1413
aVkichudun
p1414
aVcanadai
p1415
aVbolcilan
p1416
aVbrkto
p1417
aVtuib
p1418
aVkorthesi
p1419
aVkortesina
p1420
aVkoreselam
p1421
aVkortesilo
p1422
aVtuimar
p1423
aVbriste
p1424
aVbrishty
p1425
aVbringjal
p1426
aVkoreyache
p1427
aVbortomana
p1428
aVub
p1429
aVboru
p1430
aVbridhwi
p1431
aVpasshopotikria
p1432
aVbosai
p1433
aVbreastfeading
p1434
aVrojaar
p1435
aVbreastgolo
p1436
aVbreastke
p1437
aVroiyache
p1438
aVbreeast
p1439
aVtuff
p1440
aVkoriasilam
p1441
aVbresat
p1442
aVbreste
p1443
aVkoriahsi
p1444
aVkoriache
p1445
aVkoriac
p1446
aVrookom
p1447
aVbrer
p1448
aVkorieachi
p1449
aVbroblem
p1450
aVbromergan
p1451
aVpretax
p1452
aVboods
p1453
aVbugchi
p1454
aVbudo
p1455
aVboole
p1456
aVbudhbar
p1457
aVboos
p1458
aVkoryse
p1459
aVkorebad
p1460
aVkorycelam
p1461
aVucitth
p1462
aVboraa
p1463
aVroxim
p1464
aVborbo
p1465
aVbteasr
p1466
aVkorecha
p1467
aVbssa
p1468
aVbromocriptin
p1469
aVnimlod
p1470
aVrogider
p1471
aVboroman
p1472
aVtubti
p1473
aVtubta
p1474
aVbroda
p1475
aVtuboyal
p1476
aVkortw
p1477
aVkorecikam
p1478
aVtuberculasis
p1479
aVborita
p1480
aVtubel
p1481
aVninonton
p1482
aVkoreh
p1483
aVbrease
p1484
aVparvona
p1485
aVkorieychi
p1486
aVbosthay
p1487
aVkoronioooo
p1488
aVtumbe
p1489
aVtumk
p1490
aVboyfriender
p1491
aVroktalpota
p1492
aVporase
p1493
aVtumoar
p1494
aVkoroneyow
p1495
aVtumr
p1496
aVboter
p1497
aVbotese
p1498
aVtumure
p1499
aVroktoer
p1500
aVprgnancy
p1501
aVpasey
p1502
aVpasgei
p1503
aVbouk
p1504
aVkorob
p1505
aVbotu
p1506
aVboundho
p1507
aVboundur
p1508
aVkorollar
p1509
aVpasee
p1510
aVrokther
p1511
aVnijyky
p1512
aVbovisshoty
p1513
aVkorona
p1514
aVbotol
p1515
aVbowar
p1516
aVprgnase
p1517
aVturkey
p1518
aVtumarte
p1519
aVtumaar
p1520
aVroktoshunnota
p1521
aVpasant
p1522
aVbraes
p1523
aVtwisted
p1524
aVpasaba
p1525
aVbramonbariya
p1526
aVtyerd
p1527
aVbplban
p1528
aVbrar
p1529
aVromote
p1530
aVkorimane
p1531
aVromzane
p1532
aVrojochakkro
p1533
aVbreadicon
p1534
aVkorieysi
p1535
aVromman
p1536
aVboobse
p1537
aVkorlaa
p1538
aVboyyos
p1539
aVkorleito
p1540
aVboyoshondhikale
p1541
aVroktosraber
p1542
aVkoros
p1543
aVkoroye
p1544
aVboyosondikale
p1545
aVtwich
p1546
aVboyosta
p1547
aVboyshandi
p1548
aVbosot
p1549
aVkorlamnato
p1550
aVpasik
p1551
aVkorro
p1552
aVboyush
p1553
aVpascce
p1554
aVbuhlam
p1555
aVkorcila
p1556
aVbujacche
p1557
aVbolian
p1558
aVparsa
p1559
aVbythar
p1560
aVbyrer
p1561
aVnipoler
p1562
aVporamorahe
p1563
aVrita
p1564
aVpathatam
p1565
aVparsent
p1566
aVbyear
p1567
aVpatharto
p1568
aVbyata
p1569
aVpreshour
p1570
aVbuztysi
p1571
aVnifol
p1572
aVbuztesi
p1573
aVritosarbhochhe
p1574
aVkonte
p1575
aVbury
p1576
aVnipile
p1577
aVporcil
p1578
aVtraxcyl
p1579
aVbuster
p1580
aVkonokromai
p1581
aVbustey
p1582
aVbusur
p1583
aVbolm
p1584
aVbollteo
p1585
aVkonovave
p1586
aVtrasfer
p1587
aVbolllam
p1588
aVulekho
p1589
aVpathetic
p1590
aVcacchilam
p1591
aVnipon
p1592
aVniesilm
p1593
aVbolechln
p1594
aVtoyrir
p1595
aVkomsilo
p1596
aVcalculatar
p1597
aVniese
p1598
aVkomtesi
p1599
aVkompokkha
p1600
aVultrasnono
p1601
aVcamne
p1602
aVsabhabik
p1603
aVrimpi
p1604
aVpord
p1605
aVsabia
p1606
aVkomortuku
p1607
aVkoomor
p1608
aVsababic
p1609
aVcalaela
p1610
aVcaccina
p1611
aVkotoku
p1612
aVbolesilan
p1613
aVbolesien
p1614
aVcachina
p1615
aVkonodini
p1616
aVkotre
p1617
aVtraik
p1618
aVcaie
p1619
aVnippile
p1620
aVcakata
p1621
aVsababek
p1622
aVnipplete
p1623
aVboleden
p1624
aVcaiclm
p1625
aVpathomik
p1626
aVrutine
p1627
aVpathale
p1628
aVkotamoto
p1629
aVbujhsr
p1630
aVparter
p1631
aVniomoito
p1632
aVniomitu
p1633
aVpartesilam
p1634
aVkosuder
p1635
aVbujhee
p1636
aVparthhkko
p1637
aVpressur
p1638
aVrubina
p1639
aVrubi
p1640
aVrobe
p1641
aVrubber
p1642
aVniomiito
p1643
aVbujhaia
p1644
aVtrupan
p1645
aVtset
p1646
aVbujaise
p1647
aVkorchey
p1648
aVpride
p1649
aVkorch
p1650
aVpartial
p1651
aVkotati
p1652
aVbujayce
p1653
aVbujbeo
p1654
aVbujbho
p1655
aVkorcei
p1656
aVbonfast
p1657
aVtrykorar
p1658
aVbujeya
p1659
aVrsecond
p1660
aVporbotita
p1661
aVrudher
p1662
aVrmal
p1663
aVboltau
p1664
aVruner
p1665
aVkorachilan
p1666
aVbukea
p1667
aVrjent
p1668
aVbukir
p1669
aVrumote
p1670
aVbolsse
p1671
aVkoqbo
p1672
aVbulon
p1673
aVritussrab
p1674
aVbolsila
p1675
aVritusrabh
p1676
aVnipala
p1677
aVbuler
p1678
aVkoore
p1679
aVnioto
p1680
aVbujtecinaa
p1681
aVbolyce
p1682
aVporcche
p1683
aVkotesi
p1684
aVpatern
p1685
aVbujiyecen
p1686
aVkoraji
p1687
aVbujtee
p1688
aVkothachilo
p1689
aVboltew
p1690
aVrlast
p1691
aVbujtcna
p1692
aVpartasena
p1693
aVporchab
p1694
aVkoraicy
p1695
aVpartcna
p1696
aVtensoner
p1697
aVbladd
p1698
aVprioad
p1699
aVthal
p1700
aVkhakhono
p1701
aVrehman
p1702
aVkhalao
p1703
aVrehmin
p1704
aVsavavy
p1705
aVnewometo
p1706
aVkhalipete
p1707
aVcousine
p1708
aVnewor
p1709
aVpeeiod
p1710
aVkhamchi
p1711
aVporipurnota
p1712
aVbhabsi
p1713
aVcounter
p1714
aVbhahir
p1715
aVrejult
p1716
aVbhar
p1717
aVpregnct
p1718
aVkhaoateo
p1719
aVcosmetik
p1720
aVsatteo
p1721
aVkhaoaite
p1722
aVcramps
p1723
aVutbo
p1724
aVkhaoaini
p1725
aVcouching
p1726
aVkhanwanor
p1727
aVlebac
p1728
aVlebia
p1729
aVpaihana
p1730
aVleaking
p1731
aVnoemal
p1732
aVporiscar
p1733
aVkhaiyesilam
p1734
aVculkayne
p1735
aVculkata
p1736
aVculkasse
p1737
aVculkasce
p1738
aVsayma
p1739
aVculkaite
p1740
aVculkacha
p1741
aVculkacchilo
p1742
aVkhailya
p1743
aVpegnenci
p1744
aVuteruser
p1745
aVregnent
p1746
aVuteruse
p1747
aVcuay
p1748
aVkhaitece
p1749
aVbevagar
p1750
aVkhaitechi
p1751
aVkhaiyachi
p1752
aVcreatine
p1753
aVthakurgaon
p1754
aVbeybosta
p1755
aVregularity
p1756
aVcreative
p1757
aVbeytha
p1758
aVbeyase
p1759
aVcrib
p1760
aVcriptin
p1761
aVcriptine
p1762
aVregularhoy
p1763
aVcristy
p1764
aVlekban
p1765
aVcrettogo
p1766
aVcorazay
p1767
aVkhaoyaicelam
p1768
aVbhbe
p1769
aVconfirme
p1770
aVconfirmation
p1771
aVtheb
p1772
aVsastto
p1773
aVlasted
p1774
aVpech
p1775
aVkhauyaini
p1776
aVkhauyanor
p1777
aVporimanea
p1778
aVlastday
p1779
aVporimanar
p1780
aVkhawaa
p1781
aVusscan
p1782
aVlasr
p1783
aVlase
p1784
aVpebosion
p1785
aVconcib
p1786
aVthekeolpo
p1787
aVlaperoscopyer
p1788
aVkhawaila
p1789
aVlaperscopy
p1790
aVlaporscopy
p1791
aVconcerned
p1792
aVpechab
p1793
aVushud
p1794
aVprjntoe
p1795
aVconchave
p1796
aVpeayce
p1797
aVpebe
p1798
aVpeblm
p1799
aVconchive
p1800
aVthekeamar
p1801
aVpolycyst
p1802
aVtheakea
p1803
aVkhauy
p1804
aVlaver
p1805
aVnobecit
p1806
aVkhase
p1807
aVbhija
p1808
aVsathhe
p1809
aVpechoya
p1810
aVsathai
p1811
aVtharoyed
p1812
aVkharoch
p1813
aVporinmane
p1814
aVcoparate
p1815
aVbhebechi
p1816
aVutas
p1817
aVcopulation
p1818
aVbhetar
p1819
aVculkia
p1820
aVkhassina
p1821
aVbhobisshot
p1822
aVnnipple
p1823
aVusudh
p1824
aVkhauau
p1825
aVlastmnthe
p1826
aVconsafe
p1827
aVkhaualei
p1828
aVprleriod
p1829
aVbhuday
p1830
aVnnu
p1831
aVconserve
p1832
aVutace
p1833
aVrekhechil
p1834
aVconteceptic
p1835
aVkhatikar
p1836
aVpechato
p1837
aVlequiria
p1838
aVlequiriar
p1839
aVuthaycay
p1840
aVkegels
p1841
aVtestar
p1842
aVdalla
p1843
aVkehe
p1844
aVdalevary
p1845
aVdaktam
p1846
aVpachhipachhi
p1847
aVdaksi
p1848
aVbella
p1849
aVtestosterorn
p1850
aVdakiyacelam
p1851
aVlikesilam
p1852
aVlikes
p1853
aVbemanan
p1854
aVtesttube
p1855
aVpacina
p1856
aVseayasan
p1857
aVteto
p1858
aVsearab
p1859
aVbepi
p1860
aVkenoje
p1861
aVreday
p1862
aVkeni
p1863
aVkegal
p1864
aVnorer
p1865
aVkemtu
p1866
aVutrious
p1867
aVbengoli
p1868
aVkemom
p1869
aVbengesey
p1870
aVdakhono
p1871
aVligoty
p1872
aVrecenly
p1873
aVtessue
p1874
aVbekti
p1875
aVkeben
p1876
aVlikuria
p1877
aVbegina
p1878
aVlilypadz
p1879
aVkebave
p1880
aVbeforer
p1881
aVreasult
p1882
aVdarete
p1883
aVbeer
p1884
aVsecnidal
p1885
aVkcheo
p1886
aVkc
p1887
aVtentioney
p1888
aVsecound
p1889
aVkd
p1890
aVdakhalam
p1891
aVterik
p1892
aVdaowar
p1893
aVdamptto
p1894
aVbekolango
p1895
aVkedneyr
p1896
aVpacher
p1897
aVdanne
p1898
aVdanron
p1899
aVdarabahikbabe
p1900
aVlikhsi
p1901
aVbeie
p1902
aVlikoriya
p1903
aVlikselo
p1904
aVkechukkhon
p1905
aVporjaya
p1906
aVdaowao
p1907
aVdaoay
p1908
aVbibahitho
p1909
aVkenow
p1910
aVpacts
p1911
aVkgachi
p1912
aVkgawar
p1913
aVlft
p1914
aVthaie
p1915
aVdafe
p1916
aVdaeeni
p1917
aVdactari
p1918
aVpagnaci
p1919
aVbeshier
p1920
aVuthlam
p1921
aVbeshilove
p1922
aVnoose
p1923
aVrefular
p1924
aVleukorrhea
p1925
aVdaathu
p1926
aVnoodles
p1927
aVletteol
p1928
aVcupi
p1929
aVthakiiii
p1930
aVleriod
p1931
aVproa
p1932
aVpegt
p1933
aVthakhle
p1934
aVdahaila
p1935
aVlesions
p1936
aVthakeni
p1937
aVkhaeaci
p1938
aVkhadi
p1939
aVletex
p1940
aVsbr
p1941
aVcyte
p1942
aVbesta
p1943
aVdahaitam
p1944
aVdahanu
p1945
aVkeyesilam
p1946
aVdakanur
p1947
aVberhoyni
p1948
aVdakayace
p1949
aVdakayc
p1950
aVdakce
p1951
aVberhocchena
p1952
aVsdasrb
p1953
aVlicusive
p1954
aVdakhacce
p1955
aVutlea
p1956
aVdakhaine
p1957
aVberajay
p1958
aVliftup
p1959
aVpadaetin
p1960
aVteumer
p1961
aVutora
p1962
aVkesodin
p1963
aVpoliastic
p1964
aVberye
p1965
aVdahhisi
p1966
aVdahi
p1967
aVdahir
p1968
aVdahto
p1969
aVthag
p1970
aVlhasa
p1971
aVdaighter
p1972
aVthaakle
p1973
aVkevoflox
p1974
aVdaiok
p1975
aVlglaa
p1976
aVberoche
p1977
aVlhabo
p1978
aVnorate
p1979
aVkichudnrr
p1980
aVconceip
p1981
aVkhawaoa
p1982
aVchto
p1983
aVchsnge
p1984
aVchsma
p1985
aVchsile
p1986
aVniaychilo
p1987
aVbisesogoo
p1988
aVchsce
p1989
aVupokareta
p1990
aVbishasogo
p1991
aVkhoyeri
p1992
aVkhraf
p1993
aVniumito
p1994
aVbishoita
p1995
aVniua
p1996
aVsamson
p1997
aVsamprotik
p1998
aVpaymhana
p1999
aVcholtacha
p2000
aVupkiritho
p2001
aVcholtysy
p2002
aVrepost
p2003
aVsamoshai
p2004
aVnibea
p2005
aVlabiya
p2006
aVbisoetae
p2007
aVsamparke
p2008
aVkhuckir
p2009
aVreportaa
p2010
aVprisnar
p2011
aVkykfota
p2012
aVuply
p2013
aVreporti
p2014
aVtiers
p2015
aVchtoo
p2016
aVchudche
p2017
aVthrush
p2018
aVpregnnce
p2019
aVchulkoni
p2020
aVkhotekor
p2021
aVbirotikorn
p2022
aVporikh
p2023
aVchulkascilo
p2024
aVchulkasce
p2025
aVchulkanur
p2026
aVkhotie
p2027
aVchulkanito
p2028
aVsania
p2029
aVchulkala
p2030
aVchulkaitesilo
p2031
aVreort
p2032
aVchulkaitese
p2033
aVchulkachchhe
p2034
aVbisasogo
p2035
aVpaniss
p2036
aVniven
p2037
aVchulakai
p2038
aVniah
p2039
aVchulakaile
p2040
aVkhowici
p2041
aVchulakay
p2042
aVchulcaytese
p2043
aVupokirto
p2044
aVkhouwar
p2045
aVchulka
p2046
aVchulkacha
p2047
aVchulkachche
p2048
aVchulcai
p2049
aVpaylam
p2050
aVkhulsen
p2051
aVtiewmarer
p2052
aVkhysi
p2053
aVtikon
p2054
aVchokeu
p2055
aVchoelate
p2056
aVtimed
p2057
aVkibaby
p2058
aVupaiki
p2059
aVchochhy
p2060
aVbiyyer
p2061
aVpaoyer
p2062
aVkibby
p2063
aVchoa
p2064
aVkibtu
p2065
aVchlkay
p2066
aVchlkata
p2067
aVchlay
p2068
aVsambavona
p2069
aVkichokkhon
p2070
aVblacilen
p2071
aVkul
p2072
aVbkte
p2073
aVkulamele
p2074
aVchirotore
p2075
aVnisttej
p2076
aVchist
p2077
aVkichcu
p2078
aVkiccukone
p2079
aVkumace
p2080
aVtimly
p2081
aVtimey
p2082
aVchittagonger
p2083
aVtims
p2084
aVbiwer
p2085
aVtiko
p2086
aVbivokto
p2087
aVnitcher
p2088
aVcholechii
p2089
aVuphay
p2090
aVsammno
p2091
aVcholkae
p2092
aVcholkaile
p2093
aVpaoai
p2094
aVporicitor
p2095
aVtighting
p2096
aVcholkhi
p2097
aVnitesi
p2098
aVkhumari
p2099
aVsamoek
p2100
aVnithea
p2101
aVbissoye
p2102
aVpaneo
p2103
aVkhway
p2104
aVcholaklin
p2105
aVpaouya
p2106
aVbivino
p2107
aVkhychilam
p2108
aVkurbo
p2109
aVchokrote
p2110
aVbivahito
p2111
aVkhwayc
p2112
aVkurbu
p2113
aVbiua
p2114
aVpaykahan
p2115
aVkuri
p2116
aVtiknai
p2117
aVbitorya
p2118
aVcholakale
p2119
aVkureni
p2120
aVponorai
p2121
aVporikhhate
p2122
aVniyachy
p2123
aVkheao
p2124
aVpriyed
p2125
aVkheasea
p2126
aVrelationo
p2127
aVlagtise
p2128
aVureters
p2129
aVlagtice
p2130
aVkheatea
p2131
aVcolcospy
p2132
aVcolconscopy
p2133
aVbieyr
p2134
aVurain
p2135
aVthiroyed
p2136
aVcokrchilam
p2137
aVbigopart
p2138
aVcoil
p2139
aVbihahito
p2140
aVkhesilam
p2141
aVniyomitio
p2142
aVthkon
p2143
aVpalani
p2144
aVbijoler
p2145
aVcoat
p2146
aVurien
p2147
aVcobcibe
p2148
aVkhelecilam
p2149
aVbijha
p2150
aVbija
p2151
aVneyomet
p2152
aVkhekhe
p2153
aVpdi
p2154
aVreleased
p2155
aVthikvabe
p2156
aVlaja
p2157
aVuriny
p2158
aVtheykey
p2159
aVtheykei
p2160
aVlalmatia
p2161
aVcommants
p2162
aVcommend
p2163
aVtheyke
p2164
aVlalchee
p2165
aVkhawsi
p2166
aVbibohar
p2167
aVlamu
p2168
aVcompamyr
p2169
aVkhawle
p2170
aVcompletable
p2171
aVcompression
p2172
aVcommunity
p2173
aVniyoma
p2174
aVthhik
p2175
aVpakano
p2176
aVniyoum
p2177
aVthiko
p2178
aVpaknanci
p2179
aVkhayecilam
p2180
aVkhayea
p2181
aVsarve
p2182
aVkhayaci
p2183
aVkhayce
p2184
aVthicknesses
p2185
aVcomata
p2186
aVbichita
p2187
aVlakto
p2188
aVkhayaicilam
p2189
aVrelasation
p2190
aVpakea
p2191
aVcomtrol
p2192
aVbikalei
p2193
aVuppokreto
p2194
aVcinthai
p2195
aVpblms
p2196
aVuporo
p2197
aVkhoao
p2198
aVuporkrito
p2199
aVsaptapor
p2200
aVbiriktti
p2201
aVpblam
p2202
aVlagato
p2203
aVpaltai
p2204
aVuporivag
p2205
aVponir
p2206
aVkhokhn
p2207
aVkhokhoner
p2208
aVniyechhilam
p2209
aVcild
p2210
aVkholakhuli
p2211
aVthroatache
p2212
aVkhorha
p2213
aVchyeciln
p2214
aVbirod
p2215
aVpriuod
p2216
aVciddra
p2217
aVkhini
p2218
aVkhonono
p2219
aVcidra
p2220
aVlagalam
p2221
aVlaganu
p2222
aVkhondo
p2223
aVupoma
p2224
aVniyasi
p2225
aVniyam
p2226
aVremixing
p2227
aVthokthoke
p2228
aVcisser
p2229
aVkheyasi
p2230
aVclitrimazol
p2231
aVneyour
p2232
aVclkay
p2233
aVthme
p2234
aVclor
p2235
aVsaree
p2236
aVuppokito
p2237
aVbikle
p2238
aVbikl
p2239
aVneyonton
p2240
aVclse
p2241
aVpcur
p2242
aVpdarto
p2243
aVkhetm
p2244
aVreliever
p2245
aVbinamolla
p2246
aVlagecha
p2247
aVcista
p2248
aVcita
p2249
aVsararab
p2250
aVkhiche
p2251
aVremex
p2252
aVclam
p2253
aVupozukto
p2254
aVthokhn
p2255
aVkheyeciloo
p2256
aVbinosto
p2257
aVpalm
p2258
aVupoygulo
p2259
aVclien
p2260
aVbindo
p2261
aVniyew
p2262
aVmenarol
p2263
aVkorobio
p2264
aVimmedatly
p2265
aVslessha
p2266
aVmisscarrege
p2267
aVhoiai
p2268
aVfrai
p2269
aVgutter
p2270
aVfrahna
p2271
aVslight
p2272
aVactuall
p2273
aVoniyomit
p2274
aVmissar
p2275
aVprotteik
p2276
aVfozor
p2277
aViiregular
p2278
aVhoiacay
p2279
aVnane
p2280
aViliac
p2281
aVfotta
p2282
aValtanisonagrapy
p2283
aVmisoperstol
p2284
aVsoronaponnp
p2285
aVprottekei
p2286
aVmsshe
p2287
aVfotiya
p2288
aVfrastration
p2289
aVpiprar
p2290
aVfry
p2291
aViber
p2292
aVhoiclm
p2293
aVpirate
p2294
aVshorirerr
p2295
aVpirai
p2296
aVpless
p2297
aVskoto
p2298
aVvulee
p2299
aVichsa
p2300
aVnaeem
p2301
aVsolpotao
p2302
aVicon
p2303
aVhoiceo
p2304
aVprosarab
p2305
aVonjuyi
p2306
aVhoicam
p2307
aVgutigulo
p2308
aVplezz
p2309
aVprottakbarea
p2310
aVgutla
p2311
aVfrea
p2312
aVallpo
p2313
aVyrears
p2314
aVoniwomito
p2315
aVoporay
p2316
aVfoola
p2317
aValtrasonograpy
p2318
aVgynecologists
p2319
aValtrasonu
p2320
aVimplementation
p2321
aVacr
p2322
aValtrasrograf
p2323
aValtrasunu
p2324
aValtrosonnogram
p2325
aVmishiker
p2326
aVfollowed
p2327
aVgyned
p2328
aValucona
p2329
aVsosraber
p2330
aVhohacha
p2331
aVpms
p2332
aVsolf
p2333
aVmtv
p2334
aVsosshe
p2335
aVmiser
p2336
aVpions
p2337
aVhoheca
p2338
aVfoom
p2339
aVnangte
p2340
aVpoddho
p2341
aValtasonogram
p2342
aVfossay
p2343
aVsoroter
p2344
aVonitimito
p2345
aVmisiye
p2346
aVimagancy
p2347
aVimargancy
p2348
aVimarjinche
p2349
aVshopthahe
p2350
aValternetive
p2351
aVvujtey
p2352
aVimch
p2353
aVimera
p2354
aVimergancy
p2355
aVhohcce
p2356
aVgyneacologist
p2357
aVgyneacologyst
p2358
aValtrasnowgram
p2359
aVpragnece
p2360
aVsorvo
p2361
aVfoomer
p2362
aVsoreler
p2363
aVonkdn
p2364
aViansa
p2365
aVhwoai
p2366
aVhoin
p2367
aVgabod
p2368
aVhoilona
p2369
aVpirioud
p2370
aVgabo
p2371
aVmoyolage
p2372
aVwaght
p2373
aVgulta
p2374
aVmkalin
p2375
aVopening
p2376
aVwaek
p2377
aVnamuk
p2378
aVmiyeder
p2379
aVskina
p2380
aVgumabar
p2381
aVmiyadar
p2382
aVgumaile
p2383
aVprogestorene
p2384
aVhoilau
p2385
aVfutuea
p2386
aVhwai
p2387
aVmiximum
p2388
aVsopthah
p2389
aVhoinie
p2390
aVaktsopta
p2391
aVnamki
p2392
aVgaino
p2393
aVadonomar
p2394
aVsoppting
p2395
aVhois
p2396
aVakuno
p2397
aVpiriyod
p2398
aVhoir
p2399
aVhuyar
p2400
aVadnexz
p2401
aVyearcoltese
p2402
aVadnexac
p2403
aVmmkti
p2404
aVsomadhane
p2405
aVmmkit
p2406
aValaik
p2407
aVshotorkota
p2408
aVmmeier
p2409
aVgachhe
p2410
aVmmaser
p2411
aVhoinay
p2412
aVpleqase
p2413
aVprosarota
p2414
aVfutkar
p2415
aVhoiesi
p2416
aVallaha
p2417
aVpiread
p2418
aVfulaa
p2419
aVallapaty
p2420
aVsorddi
p2421
aVsorde
p2422
aVallegery
p2423
aVonketa
p2424
aVadenux
p2425
aVpotoma
p2426
aVgupone
p2427
aVadenomyoma
p2428
aVpirdin
p2429
aVmitamuti
p2430
aVguptango
p2431
aVhoiear
p2432
aVaddss
p2433
aVyime
p2434
aVnagary
p2435
aVsoluition
p2436
aVnagat
p2437
aVvulve
p2438
aVmithi
p2439
aVhoiesilo
p2440
aVmrans
p2441
aVgumare
p2442
aVpragnancyteo
p2443
aVfusri
p2444
aVprotishedhok
p2445
aVvutapin
p2446
aVsorasory
p2447
aVmittho
p2448
aVadi
p2449
aVfurthur
p2450
aVprokarer
p2451
aVhyganic
p2452
aVadhoroner
p2453
aVopkkirto
p2454
aVshorup
p2455
aVpiri
p2456
aValhamdulullah
p2457
aVsorbokkhon
p2458
aVsoluti
p2459
aValingon
p2460
aVadhar
p2461
aValjine
p2462
aVopinon
p2463
aVmnthe
p2464
aValykum
p2465
aVmubaruk
p2466
aVsmol
p2467
aVmimi
p2468
aVhamour
p2469
aVhochae
p2470
aVfender
p2471
aVfend
p2472
aVpragnessy
p2473
aVfemola
p2474
aVintimacy
p2475
aVhoccse
p2476
aVfemastin
p2477
aVopusti
p2478
aVonichchok
p2479
aVfelto
p2480
aVonibarjo
p2481
aVinverse
p2482
aVfellopion
p2483
aVposor
p2484
aVsmoothiness
p2485
aVhaouar
p2486
aVhaoya
p2487
aVnapregnancy
p2488
aVfelesilam
p2489
aVogular
p2490
aVpiller
p2491
aVfhycaly
p2492
aVopraton
p2493
aVmujhini
p2494
aVinput
p2495
aVinsahlah
p2496
aVsovar
p2497
aVonimitio
p2498
aVvoyas
p2499
aVfetore
p2500
aVminion
p2501
aVonimiti
p2502
aVamipregnent
p2503
aVinstructions
p2504
aVproyajoniyo
p2505
aVproyjonio
p2506
aVaceh
p2507
aVferinject
p2508
aVsoymporke
p2509
aVvotora
p2510
aVhochchi
p2511
aVhochchhena
p2512
aVpospu
p2513
aVachaea
p2514
aVhaoyar
p2515
aVamnio
p2516
aVfeautcer
p2517
aVfdc
p2518
aVshomoshssa
p2519
aVmilai
p2520
aVspnedosh
p2521
aVsmpork
p2522
aVfbroyedenoma
p2523
aVhoccen
p2524
aVmijora
p2525
aVissakrito
p2526
aVsojne
p2527
aVofficr
p2528
aVamraki
p2529
aVmihi
p2530
aVongshotuku
p2531
aVzetate
p2532
aVplzzzzzzzzzzzzzzzzzzzzzzzzzzzzzzzzz
p2533
aVamrblood
p2534
aVfattyr
p2535
aVabule
p2536
aVhocceana
p2537
aVfeauture
p2538
aVmilipa
p2539
aVisobant
p2540
aVofwhite
p2541
aVprokashe
p2542
aVoraa
p2543
aVshomoyi
p2544
aViregullar
p2545
aVirreguar
p2546
aVpouar
p2547
aVirregulat
p2548
aVirregural
p2549
aVirriation
p2550
aVhocchea
p2551
aVsmoto
p2552
aVamnyte
p2553
aVvorapate
p2554
aViscca
p2555
aVshomosshay
p2556
aVamonnn
p2557
aVogga
p2558
aVpropuri
p2559
aVposondn
p2560
aVmukthir
p2561
aVamot
p2562
aVmuktho
p2563
aVminits
p2564
aVzaru
p2565
aVinlarged
p2566
aVachsalamualaikum
p2567
aVamakeeatarrjonnookonoo
p2568
aVsotiporda
p2569
aVsokkto
p2570
aVsotirto
p2571
aVhoechelo
p2572
aVincreasing
p2573
aVpindoti
p2574
aVoniomitn
p2575
aVflesh
p2576
aVamamar
p2577
aVmisanu
p2578
aVmisale
p2579
aVoidinoi
p2580
aVflase
p2581
aVoidini
p2582
aVsotito
p2583
aVvsi
p2584
aVfiya
p2585
aVsotitto
p2586
aVsotiy
p2587
aVvtore
p2588
aVfiture
p2589
aVoniomoito
p2590
aVflucozole
p2591
aVimproving
p2592
aVgynocosit
p2593
aVgynolosit
p2594
aVgynosite
p2595
aVnaci
p2596
aVamabar
p2597
aVhoeyse
p2598
aVacin
p2599
aVoniontrit
p2600
aVamaded
p2601
aVmiscarried
p2602
aVamaderbaby
p2603
aVoniomtio
p2604
aVincase
p2605
aVposrap
p2606
aVmiscarig
p2607
aVsotaho
p2608
aVhoenai
p2609
aVhoejai
p2610
aVflymad
p2611
aVoidn
p2612
aVsokoler
p2613
aVsmaller
p2614
aVfitting
p2615
aVshonkirno
p2616
aVhaila
p2617
aVing
p2618
aVoppkhay
p2619
aVfinali
p2620
aVsmbobona
p2621
aVhochy
p2622
aVminorar
p2623
aVhaisa
p2624
aVfilled
p2625
aVmuhuto
p2626
aVonakay
p2627
aVzaoa
p2628
aVfijekal
p2629
aVhochocche
p2630
aVfiire
p2631
aVonio
p2632
aVachar
p2633
aVfibruary
p2634
aVohi
p2635
aVfibro
p2636
aVfibriodenama
p2637
aVshonesi
p2638
aVminstruation
p2639
aVnaowa
p2640
aVfingur
p2641
aVsotone
p2642
aVhaddir
p2643
aVmirpure
p2644
aVproug
p2645
aVoniomi
p2646
aVamasar
p2647
aVmuhila
p2648
aVonakai
p2649
aVinfecsn
p2650
aVhaia
p2651
aVgynocosaid
p2652
aVsmbob
p2653
aVprosabar
p2654
aVsottee
p2655
aVamaya
p2656
aVshongo
p2657
aVfiraiye
p2658
aVinffection
p2659
aVonakangkhito
p2660
aVopperation
p2661
aVhodce
p2662
aVsottita
p2663
aVamateur
p2664
aVsiza
p2665
aVmnthr
p2666
aVaktopic
p2667
aVmoncer
p2668
aVwopay
p2669
aVmose
p2670
aVsimosa
p2671
aVaguler
p2672
aVhosccena
p2673
aVhosccea
p2674
aVghoniea
p2675
aVshutir
p2676
aVnakedia
p2677
aVshutar
p2678
aVagu
p2679
aVonogrohopurbok
p2680
aVgoponiota
p2681
aVmonalisar
p2682
aVgoponiyotar
p2683
aVgopune
p2684
aVmonahoy
p2685
aVmoshik
p2686
aVhormum
p2687
aVsomvoba
p2688
aVghoray
p2689
aVghomar
p2690
aVajol
p2691
aVwhitesrab
p2692
aVplaz
p2693
aVsida
p2694
aVonumman
p2695
aVgondher
p2696
aVgondogol
p2697
aVajimpur
p2698
aVghotecche
p2699
aVghotche
p2700
aVhoue
p2701
aVhoueche
p2702
aVhoscy
p2703
aVghosol
p2704
aVonumoty
p2705
aVghoshe
p2706
aVhoschey
p2707
aVwkly
p2708
aVghorshon
p2709
aVmonea
p2710
aVhouro
p2711
aVhousband
p2712
aVghorboboti
p2713
aVsomoer
p2714
aVonumanik
p2715
aVakabarai
p2716
aVonusarie
p2717
aVakary
p2718
aVgharbo
p2719
aVhorman
p2720
aVpitsil
p2721
aVmokta
p2722
aVagher
p2723
aVakbarbota
p2724
aVgorha
p2725
aVaghater
p2726
aVonnotr
p2727
aVgoriour
p2728
aVghamacirmoto
p2729
aVwhaif
p2730
aVhoose
p2731
aVprotctn
p2732
aVmotai
p2733
aVpitheer
p2734
aVonuvotio
p2735
aVgoroto
p2736
aVhoyasilm
p2737
aVghaki
p2738
aVhormomer
p2739
aVghomano
p2740
aVsomvon
p2741
aVhowyate
p2742
aVghole
p2743
aVwhife
p2744
aVgholati
p2745
aVonusason
p2746
aVmomi
p2747
aVagricultural
p2748
aVghodo
p2749
aVghmer
p2750
aVhormonjonito
p2751
aVplb
p2752
aVakak
p2753
aVghmai
p2754
aVshurutei
p2755
aVplbm
p2756
aVghee
p2757
aVghaw
p2758
aVpothirodh
p2759
aVprotacstion
p2760
aVakaree
p2761
aVmoss
p2762
aVhormona
p2763
aVwoshod
p2764
aVajhn
p2765
aVmongonbar
p2766
aVmongsher
p2767
aVgilti
p2768
aVaijjno
p2769
aVaijo
p2770
aVahsalamu
p2771
aVgiey
p2772
aVprosonda
p2773
aVokye
p2774
aVgiaga
p2775
aVprosraaer
p2776
aVontto
p2777
aVahoi
p2778
aVhotak
p2779
aVaimasa
p2780
aVgogacce
p2781
aVprosram
p2782
aVppry
p2783
aVghurto
p2784
aVokhanta
p2785
aVsigissha
p2786
aVahlahr
p2787
aVhossilona
p2788
aVonsay
p2789
aVhosselo
p2790
aVaiii
p2791
aVgmaskoto
p2792
aVgiyechhilo
p2793
aVsomosshy
p2794
aVaicay
p2795
aVhostom
p2796
aVppsner
p2797
aVgiychilo
p2798
aVsikn
p2799
aVaiaita
p2800
aVsomow
p2801
aVaidoroner
p2802
aVwinbac
p2803
aVmorddhai
p2804
aVgite
p2805
aVsomoykalin
p2806
aVprosorb
p2807
aVokhoto
p2808
aVsomoyr
p2809
aVsilai
p2810
aVsik
p2811
aVwikipediate
p2812
aVgly
p2813
aVgobo
p2814
aVmonthai
p2815
aVhosseh
p2816
aVhossee
p2817
aVhospitalea
p2818
aVsomsar
p2819
aVsilu
p2820
aVhosini
p2821
aVhosilo
p2822
aVsideeffact
p2823
aVghumaba
p2824
aVmonocytes
p2825
aVsideefect
p2826
aVmonoara
p2827
aVokg
p2828
aVsideaccept
p2829
aVghruur
p2830
aVghroa
p2831
aVmonira
p2832
aVajaira
p2833
aVghotonati
p2834
aVpizza
p2835
aVgona
p2836
aVajeke
p2837
aVgonddho
p2838
aVmonokoste
p2839
aVmonoral
p2840
aVplass
p2841
aVonorod
p2842
aVmorium
p2843
aVonostay
p2844
aVsilite
p2845
aVsomporkho
p2846
aVhotayai
p2847
aVhotce
p2848
aVhotche
p2849
aVpproblem
p2850
aVsomporky
p2851
aVghuracha
p2852
aVhoyataki
p2853
aVmontai
p2854
aVairkom
p2855
aVsomonda
p2856
aVppu
p2857
aVhothhat
p2858
aVpkzzzzzzzzzz
p2859
aVsill
p2860
aVwithdrawl
p2861
aVonujaiyi
p2862
aVpky
p2863
aVprojonata
p2864
aVsomondheo
p2865
aVsommosha
p2866
aVhoo
p2867
aVprotective
p2868
aVpisia
p2869
aVhoiua
p2870
aVhprds
p2871
aVhpt
p2872
aVakonow
p2873
aVgrmer
p2874
aVshud
p2875
aVgrnhon
p2876
aVsonossa
p2877
aVnamber
p2878
aVgasagosi
p2879
aVshubechi
p2880
aVakorshonio
p2881
aVgaru
p2882
aVprokaks
p2883
aVakorsoniyo
p2884
aVhoitoo
p2885
aVakoto
p2886
aVoj
p2887
aVpishabe
p2888
aVsiteo
p2889
aVpotiniyoto
p2890
aVsontanar
p2891
aVakom
p2892
aVhoiuar
p2893
aVakkn
p2894
aVgayssay
p2895
aVholeoki
p2896
aVgaysaychilo
p2897
aVpisliye
p2898
aVxplam
p2899
aVgayenologir
p2900
aVhokum
p2901
aVhoyta
p2902
aVakmase
p2903
aVprotibesir
p2904
aVakmasher
p2905
aVhoytece
p2906
aVmotw
p2907
aVshudhuu
p2908
aVhoyvkano
p2909
aVakni
p2910
aVpisiya
p2911
aVafatoto
p2912
aVsonmashha
p2913
aVaey
p2914
aVsombbona
p2915
aVhscena
p2916
aVgarlic
p2917
aVgarld
p2918
aVadvantages
p2919
aVhumapate
p2920
aVaksopta
p2921
aVhumm
p2922
aVmoasik
p2923
aVposthapon
p2924
aVhoitachana
p2925
aVhoitacena
p2926
aVpleasr
p2927
aVhur
p2928
aVybe
p2929
aVopekhha
p2930
aVopekhie
p2931
aVshoya
p2932
aVsomashay
p2933
aVwarrid
p2934
aVaktio
p2935
aVguin
p2936
aVaktir
p2937
aVprotikcria
p2938
aVnagatibe
p2939
aVhui
p2940
aVshrir
p2941
aVyasmin
p2942
aVhoitasi
p2943
aVhsilo
p2944
aVwaype
p2945
aVoparatipn
p2946
aVgaril
p2947
aVaeiye
p2948
aVsonton
p2949
aVoivabea
p2950
aVgarbithe
p2951
aVmodai
p2952
aVoparetation
p2953
aVproid
p2954
aVhoitesilo
p2955
aVmocor
p2956
aVpisarir
p2957
aVganey
p2958
aVshrub
p2959
aVaksathay
p2960
aVpisano
p2961
aVpisai
p2962
aVganda
p2963
aVshru
p2964
aVguardian
p2965
aVaeber
p2966
aVhocccena
p2967
aVmotooi
p2968
aVoosud
p2969
aVendemetriosis
p2970
aVpraee
p2971
aVgessa
p2972
aVonnokichu
p2973
aVhoyecchilo
p2974
aVgesher
p2975
aVgesha
p2976
aVprothe
p2977
aVhoyecee
p2978
aVsondi
p2979
aVgorvodhron
p2980
aVsondikal
p2981
aVhoyechey
p2982
aVakhhn
p2983
aVpraey
p2984
aVsondo
p2985
aVwwife
p2986
aVgenric
p2987
aVpragancey
p2988
aVsondorjer
p2989
aVakhm
p2990
aVsommehon
p2991
aVweif
p2992
aVgesticar
p2993
aVakerdin
p2994
aVgortota
p2995
aVpochhurr
p2996
aVsinthiya
p2997
aVhoyaw
p2998
aVsintoto
p2999
aVhondo
p3000
aVokanei
p3001
aVsonche
p3002
aVmotau
p3003
aVpoarnane
p3004
aVgorvay
p3005
aVgorveiii
p3006
aVgeyasilo
p3007
aVgorvob
p3008
aVposub
p3009
aVproshonoi
p3010
aVgorvobothi
p3011
aVmothe
p3012
aVhomnal
p3013
aVokanao
p3014
aVwwater
p3015
aVgestone
p3016
aVhomiopatick
p3017
aVhoyechr
p3018
aVhoyechs
p3019
aVsomgom
p3020
aVgotatai
p3021
aVholya
p3022
aVsongkranto
p3023
aVpragement
p3024
aVsongome
p3025
aVoopay
p3026
aVakie
p3027
aVmodhya
p3028
aVsomewhat
p3029
aVhoyeslo
p3030
aVmotobleeding
p3031
aVgothongoto
p3032
aVholobd
p3033
aVhoyicilo
p3034
aVnamajer
p3035
aVsiriuslly
p3036
aVakjoka
p3037
aVhoyjay
p3038
aVhoynaa
p3039
aVoly
p3040
aVhomeopath
p3041
aVgotagota
p3042
aVhoyegwsilo
p3043
aVakhounow
p3044
aVposttut
p3045
aVsonechilam
p3046
aVprotho
p3047
aVagby
p3048
aVmotigat
p3049
aVonnobar
p3050
aVhomeupathi
p3051
aVpraganews
p3052
aVhoyecr
p3053
aVhoyegace
p3054
aVholka
p3055
aVhoyegache
p3056
aVhomeopathir
p3057
aVsomky
p3058
aVakhonp
p3059
aVmotn
p3060
aVgefe
p3061
aVgedilam
p3062
aVoonugroho
p3063
aVhomeopatheic
p3064
aVakhouno
p3065
aVagaito
p3066
aVhoyegeselo
p3067
aVonakta
p3068
aVpothea
p3069
aVestri
p3070
aVposiblity
p3071
aVhassilo
p3072
aVabosti
p3073
aVhlei
p3074
aVposilo
p3075
aVpouchoy
p3076
aVmyede
p3077
aVsryeb
p3078
aVaasepase
p3079
aVetive
p3080
aVplzhelpme
p3081
aVmenopose
p3082
aVvodate
p3083
aVesecilo
p3084
aVnaturel
p3085
aVprodlem
p3086
aVjanalw
p3087
aVjanaty
p3088
aVhisebmoton
p3089
aVesaraw
p3090
aVprtsi
p3091
aVsri
p3092
aVmenorhagia
p3093
aVanimia
p3094
aVhasbandr
p3095
aVsraf
p3096
aVhobanato
p3097
aVposhchaper
p3098
aVpierce
p3099
aVhatota
p3100
aVexpensiv
p3101
aVposibillyty
p3102
aVsrabjai
p3103
aVmiara
p3104
aVsholar
p3105
aVonekare
p3106
aVankta
p3107
aVprangangcy
p3108
aVposhak
p3109
aVfallear
p3110
aVsroddheya
p3111
aVmypill
p3112
aVvolben
p3113
aVextremly
p3114
aVsraba
p3115
aVoneck
p3116
aVheloo
p3117
aVhobbe
p3118
aVvitu
p3119
aVjaniaci
p3120
aVongea
p3121
aVepilin
p3122
aVsobsimoy
p3123
aVsodik
p3124
aVhcchena
p3125
aVoccasion
p3126
aVjanarci
p3127
aVansilam
p3128
aVantato
p3129
aVhcci
p3130
aVoneki
p3131
aVanwsar
p3132
aVstard
p3133
aVjalaporata
p3134
aVplsssssssss
p3135
aVivabe
p3136
aVjagatar
p3137
aVfamilical
p3138
aVsohonaser
p3139
aVanemic
p3140
aViye
p3141
aVmyeder
p3142
aVaba
p3143
aVvogtechi
p3144
aVorceline
p3145
aVfaithfully
p3146
aVhccce
p3147
aVzuki
p3148
aVhassle
p3149
aVorgnism
p3150
aVhiiaa
p3151
aVannanno
p3152
aVabat
p3153
aVfalun
p3154
aVprthome
p3155
aVongor
p3156
aVshojag
p3157
aVanwser
p3158
aVjalapurao
p3159
aVjalche
p3160
aVpramorsa
p3161
aVexmp
p3162
aVsmvobona
p3163
aVoekhane
p3164
aVfalanu
p3165
aVhep
p3166
aVsobvobona
p3167
aVzony
p3168
aVaborting
p3169
aVplzzzzzzzzzzzzzzzzzzzzz
p3170
aVjairkom
p3171
aVmerrystops
p3172
aVprocured
p3173
aVhips
p3174
aVsobgulote
p3175
aVanita
p3176
aVmhasic
p3177
aVpositv
p3178
aVpourbo
p3179
aVaboard
p3180
aVmeyedersik
p3181
aVprodah
p3182
aVjanbena
p3183
aVpoddute
p3184
aVapaindix
p3185
aVanjona
p3186
aVfalacelam
p3187
aVhen
p3188
aVmwyeder
p3189
aVshombobana
p3190
aVmun
p3191
aVmenstrul
p3192
aVhio
p3193
aVmenstruction
p3194
aVoedn
p3195
aVanece
p3196
aVjanbe
p3197
aVanekh
p3198
aVmenstrusion
p3199
aVhenomonnotay
p3200
aVjanbeb
p3201
aVjaitha
p3202
aVeso
p3203
aVjaitho
p3204
aVhence
p3205
aVaniyom
p3206
aVvoke
p3207
aVhoayni
p3208
aVhoayay
p3209
aVhasbn
p3210
aVaathalo
p3211
aVprolatin
p3212
aVshokta
p3213
aVabdoment
p3214
aVanzwer
p3215
aVsobgulor
p3216
aVfalaiche
p3217
aVjananan
p3218
aVmenustration
p3219
aVmians
p3220
aVprasabaer
p3221
aVmetha
p3222
aVjaneban
p3223
aVanyone
p3224
aVsrup
p3225
aVaparoto
p3226
aVsobujh
p3227
aVjalar
p3228
aVhermin
p3229
aVzific
p3230
aVantybayatic
p3231
aVprolaction
p3232
aVfalaise
p3233
aVjalapurata
p3234
aVviye
p3235
aVapapa
p3236
aVentiviotic
p3237
aVepiliim
p3238
aVaoa
p3239
aVvobisoyte
p3240
aVsohokarei
p3241
aVaborson
p3242
aVeraguler
p3243
aVjanea
p3244
aVpicony
p3245
aVvobisota
p3246
aVhkno
p3247
aVmetey
p3248
aVaniom
p3249
aVsobjaegae
p3250
aVankbar
p3251
aVpovisoon
p3252
aVmese
p3253
aVnaridar
p3254
aVnarves
p3255
aVoruna
p3256
aVork
p3257
aViurin
p3258
aVapekkhay
p3259
aVjagate
p3260
aVonck
p3261
aVestoner
p3262
aVsobchaya
p3263
aVharfall
p3264
aVfacon
p3265
aVjacchu
p3266
aVochith
p3267
aVisubbul
p3268
aVshomaghan
p3269
aVhhoyechilo
p3270
aVaap
p3271
aVsohobaso
p3272
aVheasa
p3273
aVhisterosalfingraphy
p3274
aVjanassi
p3275
aVersate
p3276
aVfaruk
p3277
aVfarzana
p3278
aVsocid
p3279
aVistrier
p3280
aVprsraber
p3281
aVhcl
p3282
aVendomatrosis
p3283
aVoneyomito
p3284
aVfade
p3285
aVjacchey
p3286
aVongoke
p3287
aVfarmecite
p3288
aVerlt
p3289
aVmezachi
p3290
aVendometriotic
p3291
aVendometriosis
p3292
aVmustrubute
p3293
aVshobaree
p3294
aVheath
p3295
aVprangnency
p3296
aVhidden
p3297
aVesuvent
p3298
aVapmer
p3299
aVhelpppppp
p3300
aVabest
p3301
aVanorexia
p3302
aVspouse
p3303
aVmeyyeder
p3304
aVaachan
p3305
aVmuner
p3306
aVmeyere
p3307
aVhholeo
p3308
aVmesylate
p3309
aVpouchale
p3310
aVhiseba
p3311
aVendimetriosis
p3312
aVjaibaba
p3313
aVsojjagoto
p3314
aVestrir
p3315
aVvoge
p3316
aVsrltrir
p3317
aVsojjer
p3318
aVjamanat
p3319
aVposibol
p3320
aVosantusto
p3321
aVhiyachilo
p3322
aVfatanor
p3323
aVistheye
p3324
aVorgesm
p3325
aVspooting
p3326
aVeveyday
p3327
aVorregular
p3328
aVmula
p3329
aVfabru
p3330
aVvogasse
p3331
aVmeriprist
p3332
aVhiapu
p3333
aVmifton
p3334
aVhiba
p3335
aVfasr
p3336
aVhayaci
p3337
aVhardwork
p3338
aVhichche
p3339
aVesty
p3340
aVfaatca
p3341
aVhayechan
p3342
aVerokhm
p3343
aVhobor
p3344
aVoddapeka
p3345
aVorgatrill
p3346
aVmifepriston
p3347
aVmyometrum
p3348
aVhiya
p3349
aVposomer
p3350
aVshobaii
p3351
aVabaistai
p3352
aVabs
p3353
aVaassalamualaikum
p3354
aVhobya
p3355
aVhayna
p3356
aVplsans
p3357
aVabarer
p3358
aVissha
p3359
aVjanaite
p3360
aVhissena
p3361
aVjanaiya
p3362
aVfainal
p3363
aVhetu
p3364
aVapenera
p3365
aVithun
p3366
aVmustrbute
p3367
aVenese
p3368
aVanshwer
p3369
aVfani
p3370
aVssbr
p3371
aVhoana
p3372
aVvoltalin
p3373
aVmezor
p3374
aVapha
p3375
aVsohobbas
p3376
aVenechi
p3377
aVmetherspan
p3378
aVhatdey
p3379
aVvoiar
p3380
aVpouchay
p3381
aVheterogenious
p3382
aVheteroechoic
p3383
aVstaito
p3384
aVmeonij
p3385
aVstel
p3386
aVmulticystic
p3387
aVpicha
p3388
aVannok
p3389
aVhelpe
p3390
aVhisabay
p3391
aVsthei
p3392
aVplzzzzzzzzzzzzzzzzzzzz
p3393
aVsrob
p3394
aVhinominotai
p3395
aVvlovabei
p3396
aVeregula
p3397
aVshobasy
p3398
aVabrabroad
p3399
aVshocking
p3400
aVannoymous
p3401
aVjalier
p3402
aVereguler
p3403
aVerektu
p3404
aVmenestru
p3405
aVabibahito
p3406
aVodf
p3407
aVetiar
p3408
aVepithical
p3409
aVsshomy
p3410
aVithing
p3411
aVmusturbate
p3412
aVoccured
p3413
aVongcher
p3414
aVmultibitamin
p3415
aVsobchaite
p3416
aVpoddotiteke
p3417
aVongaer
p3418
aVabha
p3419
aVjaccen
p3420
aVmutabak
p3421
aVjaha
p3422
aVhheavy
p3423
aVerjnnoi
p3424
aVhchche
p3425
aVnaake
p3426
aVeprim
p3427
aVaada
p3428
aVshomosa
p3429
aVstirr
p3430
aVjanaia
p3431
aVabri
p3432
aVmidecal
p3433
aVanshar
p3434
aVhistamin
p3435
aVdaath
p3436
aVpalongsak
p3437
aVagrosor
p3438
aVlevocetirizine
p3439
aVdabe
p3440
aVnandos
p3441
aVkyty
p3442
aVmouthr
p3443
aVbaim
p3444
aValtasnugrapy
p3445
aVkhaca
p3446
aVtholay
p3447
aVmurad
p3448
aVbrbe
p3449
aVnek
p3450
aVchoray
p3451
aVkmle
p3452
aVextranal
p3453
aVkahawa
p3454
aVbiral
p3455
aVjijaia
p3456
aVjassha
p3457
aVbiraler
p3458
aVdadai
p3459
aVmetabolic
p3460
aVdhorleyo
p3461
aVjachhay
p3462
aVdhorae
p3463
aVarong
p3464
aVlevocar
p3465
aVbolychilan
p3466
aVhinotatay
p3467
aVprotien
p3468
aVpasturi
p3469
aVhinotay
p3470
aVchorbe
p3471
aVtth
p3472
aVkahao
p3473
aVvin
p3474
aVjely
p3475
aVifterkorbo
p3476
aVtatatari
p3477
aVrevotil
p3478
aVhathar
p3479
aViftara
p3480
aVkhla
p3481
aVtrulex
p3482
aVaniya
p3483
aVniacin
p3484
aVhyclate
p3485
aVgumani
p3486
aVjhimate
p3487
aVparasitemol
p3488
aVpayour
p3489
aVsenography
p3490
aVexchan
p3491
aVkame
p3492
aVrochie
p3493
aVdyt
p3494
aVexerciser
p3495
aVblsn
p3496
aVsukaina
p3497
aVrebitec
p3498
aVderos
p3499
aVannokar
p3500
aVoverwight
p3501
aValhn
p3502
aVkhotekarok
p3503
aVnosal
p3504
aVchaul
p3505
aVshokie
p3506
aVbongse
p3507
aVnijay
p3508
aVmitru
p3509
aVbaniy
p3510
aVkidly
p3511
aVmepecilam
p3512
aVsommossar
p3513
aVaktokro
p3514
aVposha
p3515
aVokankar
p3516
aVkamrul
p3517
aVghaam
p3518
aVchukka
p3519
aVjhabsa
p3520
aVchhe
p3521
aVpurotrol
p3522
aVparaktin
p3523
aVkoshol
p3524
aVanujayii
p3525
aVgade
p3526
aVgorvobostar
p3527
aVpunnoboyasko
p3528
aVgestrik
p3529
aVpurpuri
p3530
aVjeteci
p3531
aVrestaurant
p3532
aVbarika
p3533
aVkisir
p3534
aVlvl
p3535
aVlygetion
p3536
aVkty
p3537
aValarjite
p3538
aVsukhasen
p3539
aVnosoto
p3540
aVdentister
p3541
aVpartici
p3542
aValarg
p3543
aVadorsho
p3544
aVbishishto
p3545
aVrocktar
p3546
aVgulpr
p3547
aVchulay
p3548
aVkhrch
p3549
aVdakiachi
p3550
aVmoxin
p3551
aVbma
p3552
aVpaddoti
p3553
aVlagaba
p3554
aVesechilam
p3555
aVhizia
p3556
aVchikn
p3557
aVhbaa
p3558
aVfrodex
p3559
aVterboet
p3560
aVpothidin
p3561
aVpaltay
p3562
aVdhakata
p3563
aVvisceralgine
p3564
aVhoichr
p3565
aVhumira
p3566
aVdull
p3567
aVhoitaci
p3568
aVsanaul
p3569
aVbalumati
p3570
aVsolpotay
p3571
aVmolmutro
p3572
aVciner
p3573
aVprottak
p3574
aVkaresi
p3575
aVgento
p3576
aVmahidul
p3577
aVmutie
p3578
aVmathayo
p3579
aVjachy
p3580
aVpotrikay
p3581
aVsamudrik
p3582
aVgurom
p3583
aVdhawa
p3584
aVsorishar
p3585
aVkaicoin
p3586
aVadalimumab
p3587
aVdukese
p3588
aVmadium
p3589
aVgamai
p3590
aVhoac
p3591
aVsorbotershate
p3592
aVkecko
p3593
aVbangal
p3594
aVlickage
p3595
aVbary
p3596
aVbandhubir
p3597
aVoilo
p3598
aVvirous
p3599
aVadhakg
p3600
aVsiy
p3601
aVrocal
p3602
aVfulto
p3603
aVgalas
p3604
aVkisr
p3605
aVsorerar
p3606
aVdexamethason
p3607
aVkhorma
p3608
aVviews
p3609
aVprivison
p3610
aVjatiu
p3611
aVpurushanggo
p3612
aVoven
p3613
aVrakhlai
p3614
aVdexamethasone
p3615
aVjera
p3616
aVbude
p3617
aVphen
p3618
aVpaedophilia
p3619
aVbioslim
p3620
aVdextason
p3621
aVkapunir
p3622
aVshokaal
p3623
aVdhortey
p3624
aVtoothpest
p3625
aVvangga
p3626
aVjaniachilam
p3627
aVkhatate
p3628
aVkibahve
p3629
aVkataler
p3630
aVjajca
p3631
aVdorenr
p3632
aVtubeweller
p3633
aVprorsabe
p3634
aVmdcnta
p3635
aVmaraktho
p3636
aVkomanour
p3637
aVdorhe
p3638
aVdorilaf
p3639
aVmicoral
p3640
aVcolai
p3641
aVsurbot
p3642
aVprovironum
p3643
aVkomchao
p3644
aVaxibid
p3645
aVavileble
p3646
aVshmoshay
p3647
aVprocetion
p3648
aVsmok
p3649
aVkheaclam
p3650
aVhochchc
p3651
aVchokha
p3652
aVesonix
p3653
aVanaesthesia
p3654
aVdorabulin
p3655
aVzatio
p3656
aVpud
p3657
aVprjojjo
p3658
aVapocal
p3659
aVconstipetion
p3660
aVkomchayna
p3661
aVhamdad
p3662
aVpuuj
p3663
aVmassa
p3664
aVgolbladdar
p3665
aVupkarita
p3666
aVhotht
p3667
aVxenekal
p3668
aVkumr
p3669
aVphos
p3670
aVloitta
p3671
aVdaybeticks
p3672
aVbaherar
p3673
aVasslamualikym
p3674
aVhaigt
p3675
aVukhan
p3676
aVupto
p3677
aVvitaminta
p3678
aVccu
p3679
aVkolikata
p3680
aVjobat
p3681
aVdefine
p3682
aVpeyesen
p3683
aVdinerta
p3684
aVcoq
p3685
aVobab
p3686
aVshiddo
p3687
aVkomaise
p3688
aVohkey
p3689
aVmornin
p3690
aVrct
p3691
aVnastai
p3692
aVkoymas
p3693
aVairokm
p3694
aVkutshito
p3695
aVmiconazole
p3696
aVedible
p3697
aVmoroni
p3698
aVjorjor
p3699
aVtubeweler
p3700
aVemastet
p3701
aVanarose
p3702
aVswt
p3703
aVjoining
p3704
aVsefrad
p3705
aVemployment
p3706
aVspirullina
p3707
aVcaiter
p3708
aVdmch
p3709
aVpeash
p3710
aVmyotolf
p3711
aVonakkisu
p3712
aVbyamer
p3713
aVhapanir
p3714
aVnaapa
p3715
aVmetabolisom
p3716
aVdkia
p3717
aVverlina
p3718
aVdomidon
p3719
aVnabinagar
p3720
aVfelbena
p3721
aVaccah
p3722
aVmukhsy
p3723
aVshomosai
p3724
aVpentoprazol
p3725
aVfatt
p3726
aVatior
p3727
aVatirikto
p3728
aVjanjan
p3729
aVdoechilo
p3730
aVshomoshati
p3731
aVpeyarar
p3732
aVpiaj
p3733
aVneshedh
p3734
aVamraro
p3735
aVcompete
p3736
aVkonokichu
p3737
aVfayda
p3738
aVathaka
p3739
aVamrrr
p3740
aVbyetha
p3741
aVbyshi
p3742
aVpalaicoin
p3743
aVfelche
p3744
aVsprayer
p3745
aVhighst
p3746
aVobustha
p3747
aVkouwa
p3748
aVamvolite
p3749
aVdiyeace
p3750
aVdiyca
p3751
aVkouwano
p3752
aVdcte
p3753
aVbbastine
p3754
aVkorerr
p3755
aVpartokkho
p3756
aVquary
p3757
aVhanan
p3758
aVcanavut
p3759
aVditox
p3760
aVnutrum
p3761
aVpentir
p3762
aVgmr
p3763
aVboleca
p3764
aVpildarer
p3765
aVspectazole
p3766
aVojokon
p3767
aVbeai
p3768
aVkottotoko
p3769
aVkottotuku
p3770
aVpildar
p3771
aVaiir
p3772
aVtoxin
p3773
aVjannu
p3774
aVshompirti
p3775
aVcallorer
p3776
aVlipid
p3777
aVshompor
p3778
aVvegal
p3779
aVorthatmesty
p3780
aVothley
p3781
aVdkaice
p3782
aVjaoae
p3783
aVameeeee
p3784
aVzifoled
p3785
aVjaitesena
p3786
aVchion
p3787
aVaspondon
p3788
aVmaltivit
p3789
aVkrcena
p3790
aVvarari
p3791
aVpracitaml
p3792
aVclofert
p3793
aVaciloc
p3794
aVphoka
p3795
aVlentils
p3796
aVgail
p3797
aVlep
p3798
aVmalic
p3799
aVculabut
p3800
aVhelthy
p3801
aVbathaha
p3802
aVbathanasok
p3803
aVaboscok
p3804
aVrido
p3805
aVbec
p3806
aVboyousker
p3807
aVeconazole
p3808
aVantista
p3809
aVmoga
p3810
aVbextrme
p3811
aVtorighori
p3812
aVhouear
p3813
aVprn
p3814
aVonaik
p3815
aVcepta
p3816
aVprotur
p3817
aVkuvoy
p3818
aVbacor
p3819
aVprotudin
p3820
aVculkanio
p3821
aVunderwaer
p3822
aVjwalapora
p3823
aVducktor
p3824
aVhsptl
p3825
aVsherap
p3826
aVpharmaton
p3827
aVsbasto
p3828
aVonojaye
p3829
aVtensonar
p3830
aVrujai
p3831
aVdekhaichilam
p3832
aVkarmu
p3833
aVkhado
p3834
aVforiotin
p3835
aVcuteness
p3836
aVducadulamine
p3837
aVprey
p3838
aVvugte
p3839
aVhoutaci
p3840
aVvangy
p3841
aVdatgula
p3842
aVtong
p3843
aVbpcal
p3844
aVbadavo
p3845
aVmohasin
p3846
aVbatah
p3847
aVkodao
p3848
aVkarond
p3849
aVsuiclam
p3850
aVkvvv
p3851
aVjiniseito
p3852
aVdiabectics
p3853
aVzobia
p3854
aVrung
p3855
aVshobkaj
p3856
aVporyna
p3857
aVdiecholo
p3858
aVkasce
p3859
aVosodta
p3860
aVmirtuar
p3861
aVshahastu
p3862
aVpotti
p3863
aVonujayii
p3864
aVmangshota
p3865
aVmangshotar
p3866
aVnokia
p3867
aVmonokoshte
p3868
aVdihydrochloride
p3869
aVmirpura
p3870
aVvitamim
p3871
aVdigre
p3872
aVpregnanty
p3873
aVgolpukuria
p3874
aVporamoss
p3875
aVpohela
p3876
aVsupllyment
p3877
aVgashtiker
p3878
aVkheo
p3879
aVsiprocin
p3880
aVdiesy
p3881
aVcei
p3882
aVsadhe
p3883
aVmanoser
p3884
aVputia
p3885
aVvath
p3886
aVfithfully
p3887
aVtebast
p3888
aVshaskosto
p3889
aVchirota
p3890
aVamasoi
p3891
aVelarjy
p3892
aVrokty
p3893
aVdawai
p3894
aVdoxy
p3895
aVpesent
p3896
aVvarunu
p3897
aVnaitpesar
p3898
aVjnoner
p3899
aVincress
p3900
aVetaw
p3901
aVpotiden
p3902
aVticamet
p3903
aVchscchi
p3904
aVgorvopoti
p3905
aVniunito
p3906
aVthyroxin
p3907
aVtikhache
p3908
aVpantabox
p3909
aVgorvodharona
p3910
aVcholeco
p3911
aVgoshte
p3912
aVchoragon
p3913
aVcholcea
p3914
aVpankorabe
p3915
aVchorar
p3916
aVchotese
p3917
aVtikadan
p3918
aVgothito
p3919
aVgorvovote
p3920
aVtikbabe
p3921
aVpanivangse
p3922
aVpanne
p3923
aVpantogen
p3924
aVkhwaci
p3925
aVpantac
p3926
aVgos
p3927
aVpanivanga
p3928
aVnitche
p3929
aVhisba
p3930
aVkhusu
p3931
aVbriokto
p3932
aVgorvote
p3933
aVthyros
p3934
aVchromosomal
p3935
aVhisbent
p3936
aVhomiopothik
p3937
aVchowal
p3938
aVkhuchu
p3939
aVchotfot
p3940
aVkhroj
p3941
aVpantoprajol
p3942
aVhometest
p3943
aVkoresn
p3944
aVkoreyece
p3945
aVhom
p3946
aVcholtysa
p3947
aVthyronor
p3948
aVgosona
p3949
aVtibroo
p3950
aVcholitece
p3951
aVpantid
p3952
aVpregtant
p3953
aVhomeopatik
p3954
aVcholtechilo
p3955
aVkhushir
p3956
aVheartbet
p3957
aVbridir
p3958
aVonnobabe
p3959
aVcholkasche
p3960
aVtuiri
p3961
aVcholkasse
p3962
aVgosvobtir
p3963
aVtiard
p3964
aVhealgen
p3965
aVbriding
p3966
aVcholena
p3967
aVcholen
p3968
aVhistasin
p3969
aVcholtace
p3970
aVkoreye
p3971
aVkhteu
p3972
aVkhulnai
p3973
aVchondro
p3974
aVsommasha
p3975
aVgorvoobostha
p3976
aVgorvodoti
p3977
aVcholejai
p3978
aVparty
p3979
aVprevios
p3980
aVgosay
p3981
aVkoreyeci
p3982
aVkhuleni
p3983
aVpantyr
p3984
aVsamosha
p3985
aVtukhon
p3986
aVkhujtesi
p3987
aVniuar
p3988
aVprewod
p3989
aVkoreyse
p3990
aVhisband
p3991
aVchotobelai
p3992
aVcholshe
p3993
aVcacca
p3994
aVparu
p3995
aVgolpi
p3996
aVherd
p3997
aVcoa
p3998
aVkheleki
p3999
aVsarirar
p4000
aVcns
p4001
aVherewith
p4002
aVpregnenet
p4003
aVherat
p4004
aVcmx
p4005
aVhikitsha
p4006
aVprgnacer
p4007
aVkheten
p4008
aVpalaxa
p4009
aVsobrokom
p4010
aVgomoj
p4011
aVthkl
p4012
aVthkikk
p4013
aVcokrakare
p4014
aVniyontorn
p4015
aVkheite
p4016
aVhossan
p4017
aVcohole
p4018
aVthjune
p4019
aVpregnenency
p4020
aVonosare
p4021
aVhesa
p4022
aVsomomma
p4023
aVthkan
p4024
aVcocunat
p4025
aVhossaa
p4026
aVcoconuts
p4027
aVoldai
p4028
aVcolafira
p4029
aVtulpate
p4030
aVclue
p4031
aVhemospermia
p4032
aVkhetum
p4033
aVhemorrhage
p4034
aVkheueci
p4035
aVgonie
p4036
aVroll
p4037
aVkhetry
p4038
aVpalca
p4039
aVpaleci
p4040
aVhimsim
p4041
aVhemofix
p4042
aVsomoisha
p4043
aVgononah
p4044
aVclinike
p4045
aVporikko
p4046
aVsargel
p4047
aVclosed
p4048
aVkhetr
p4049
aVpascci
p4050
aVkheteu
p4051
aVcltce
p4052
aVkhetew
p4053
aVhoshshe
p4054
aVhoshesena
p4055
aVpregnense
p4056
aVgomote
p4057
aVgonddo
p4058
aVkhetheoo
p4059
aVrokun
p4060
aVgondis
p4061
aVclotrimazole
p4062
aVboyss
p4063
aVkorlayy
p4064
aVonekea
p4065
aVhesabta
p4066
aVroktokhoron
p4067
aVglocouse
p4068
aVpoush
p4069
aVsomoshsa
p4070
aVcomcive
p4071
aVkhayale
p4072
aVgnant
p4073
aVkhayache
p4074
aVcolvo
p4075
aVhig
p4076
aVcoltace
p4077
aVkhayatam
p4078
aVprgnaser
p4079
aVsobkisur
p4080
aVkhaychelam
p4081
aVthij
p4082
aVcolowrr
p4083
aVglocose
p4084
aVpajsi
p4085
aVsomosssha
p4086
aVthethoscope
p4087
aVcommode
p4088
aVokoi
p4089
aVoneket
p4090
aVboum
p4091
aVkhayacha
p4092
aVokon
p4093
aVkhawyaya
p4094
aVkhawyayse
p4095
aVkhawysi
p4096
aVglaxose
p4097
aVkornit
p4098
aVglobal
p4099
aVcomletent
p4100
aVcolostrel
p4101
aVpotheo
p4102
aVhighway
p4103
aVsomorshar
p4104
aVcolddrink
p4105
aVsomorsha
p4106
aVthiphoyed
p4107
aVcolcey
p4108
aVkheayche
p4109
aVhesse
p4110
aVboyesi
p4111
aVcolcche
p4112
aVthiroade
p4113
aVsarkel
p4114
aVthiroed
p4115
aVcolba
p4116
aVpregnencytay
p4117
aVhossar
p4118
aVthina
p4119
aVsarkele
p4120
aVonota
p4121
aVporima
p4122
aVkhayono
p4123
aVcolligge
p4124
aVthikmotoi
p4125
aVkhayty
p4126
aVheto
p4127
aVhossna
p4128
aVniyor
p4129
aVboyeosh
p4130
aVkheache
p4131
aVkheala
p4132
aVcolestrol
p4133
aVhossha
p4134
aVhossenna
p4135
aVkorlum
p4136
aVkoriyesilam
p4137
aVgorvodaner
p4138
aVsomoey
p4139
aVsardopa
p4140
aVhorar
p4141
aVgorbu
p4142
aVparvina
p4143
aVhoqr
p4144
aVkhoroja
p4145
aVbreathing
p4146
aVgorbotider
p4147
aVnix
p4148
aVbrecch
p4149
aVthub
p4150
aVbrech
p4151
aVgorokal
p4152
aVoneksomoy
p4153
aVsankochon
p4154
aVgorie
p4155
aVonnoti
p4156
aVchutio
p4157
aVthreatened
p4158
aVkhonder
p4159
aVgorbobothi
p4160
aVcifotil
p4161
aVniyamito
p4162
aVnille
p4163
aVkoricu
p4164
aVsaomoy
p4165
aVgorbodaroner
p4166
aVgorbohboti
p4167
aVheghit
p4168
aVchyly
p4169
aVgorbopater
p4170
aVhorca
p4171
aVgorboster
p4172
aVgorbofol
p4173
aVcigerian
p4174
aVkhotigrosto
p4175
aVsocharachor
p4176
aVkhovoi
p4177
aVkoriacen
p4178
aVchuiye
p4179
aVhomoio
p4180
aVthynorom
p4181
aVkhowbo
p4182
aVkhouya
p4183
aVthyroaid
p4184
aVgorvobity
p4185
aVrooh
p4186
aVhearttbet
p4187
aVgorvobotidar
p4188
aVgorvobotider
p4189
aVnilpel
p4190
aVhomoeopathic
p4191
aVkhotikar
p4192
aVsintrom
p4193
aVgorvabosthai
p4194
aVhonta
p4195
aVsinoy
p4196
aVhisabta
p4197
aVnivo
p4198
aVpotiber
p4199
aVbresta
p4200
aVkoriacilam
p4201
aVgoruchche
p4202
aVkhour
p4203
aVhonai
p4204
aVgorvabostar
p4205
aVparveen
p4206
aVkoriacy
p4207
aVgorvabostay
p4208
aVkhotykor
p4209
aVcik
p4210
aVpprjonto
p4211
aVporikkaw
p4212
aVsobida
p4213
aVkoriyasilam
p4214
aVclavox
p4215
aVclavesef
p4216
aVkheyley
p4217
aVsimtoms
p4218
aVkheyl
p4219
aVkoriyasi
p4220
aVhelpkoren
p4221
aVbrandta
p4222
aVsimulation
p4223
aVkorisilam
p4224
aVpregnents
p4225
aVcirik
p4226
aVhelples
p4227
aVgoralir
p4228
aVclce
p4229
aVhoscca
p4230
aVprgencey
p4231
aVkheyecelo
p4232
aVclimbing
p4233
aVhindi
p4234
aVbpregnant
p4235
aVonomito
p4236
aVpregnente
p4237
aVkoriyechhilam
p4238
aVkoriyasilan
p4239
aVkheyechhilam
p4240
aVsarchena
p4241
aVbracwashprograme
p4242
aVclewame
p4243
aVthohole
p4244
aVclimazine
p4245
aVcirculer
p4246
aVkhinai
p4247
aVromjane
p4248
aVkoriechiy
p4249
aVkhoe
p4250
aVgorbavostar
p4251
aVparvoki
p4252
aVgorbet
p4253
aVgorbeto
p4254
aVkoriese
p4255
aVkhokhan
p4256
aVgorbhobote
p4257
aVkhokun
p4258
aVsinalac
p4259
aVcilce
p4260
aVgorbobaty
p4261
aVporikkhao
p4262
aVgorbhabostai
p4263
aVcinceive
p4264
aVhelan
p4265
aVcincine
p4266
aVkhine
p4267
aVcircale
p4268
aVkhitace
p4269
aVkhiub
p4270
aVpaloxi
p4271
aVtholitei
p4272
aVbreackfast
p4273
aVgoranu
p4274
aVcinsive
p4275
aVhormonse
p4276
aVpregneny
p4277
aVhormons
p4278
aVbread
p4279
aVgoraya
p4280
aVpalpitation
p4281
aVkheyeacilam
p4282
aVkhkon
p4283
aVguinocologist
p4284
aVholow
p4285
aVparinah
p4286
aVhoata
p4287
aVhoawai
p4288
aVkoraicilam
p4289
aVkoity
p4290
aVcentere
p4291
aVhacca
p4292
aVkojhono
p4293
aVhaccha
p4294
aVpouchhe
p4295
aVceno
p4296
aVpario
p4297
aVkoraica
p4298
aVhoegese
p4299
aVhacchilo
p4300
aVbujtey
p4301
aVoniomitu
p4302
aVcephelic
p4303
aVbujuye
p4304
aVkoiran
p4305
aVhabbyr
p4306
aVhoeyesilo
p4307
aVcesrta
p4308
aVparichina
p4309
aVhoassa
p4310
aVcesarian
p4311
aVhoeye
p4312
aVkoidon
p4313
aVporcena
p4314
aVhoeya
p4315
aVsling
p4316
aVnirikha
p4317
aVhoesilm
p4318
aVcercyle
p4319
aVcercyl
p4320
aVcercly
p4321
aVkoraiii
p4322
aVbujtechenna
p4323
aVcercel
p4324
aVkoracy
p4325
aVtremiser
p4326
aVhoayar
p4327
aVhaechilo
p4328
aVcel
p4329
aVhaeoar
p4330
aVoniomet
p4331
aVkokohn
p4332
aVhafaz
p4333
aVhoeachi
p4334
aVhoeachhe
p4335
aVhafl
p4336
aVsadhasarab
p4337
aVcegarian
p4338
aVhagbent
p4339
aVcegari
p4340
aVkokta
p4341
aVhager
p4342
aVcefem
p4343
aVsoki
p4344
aVcelan
p4345
aVcelculetar
p4346
aVhashbay
p4347
aVhadphone
p4348
aVsohojogita
p4349
aVbukeo
p4350
aVkokhni
p4351
aVtreblet
p4352
aVbukha
p4353
aVcelseno
p4354
aVprescriptions
p4355
aVbukher
p4356
aVkoiden
p4357
aVtorkarir
p4358
aVrupam
p4359
aVkoracelo
p4360
aVkokhone
p4361
aVkokhoni
p4362
aVrupchanda
p4363
aVoniomitho
p4364
aVnipal
p4365
aVkorabar
p4366
aVkokhokn
p4367
aVpreseed
p4368
aVkoraile
p4369
aVgyonochologist
p4370
aVhoajasse
p4371
aVhohe
p4372
aVchaicina
p4373
aVhatcilam
p4374
aVchaichilo
p4375
aVparental
p4376
aVkoraselm
p4377
aVbujhtechina
p4378
aVtolpetar
p4379
aVtolpeteo
p4380
aVporby
p4381
aVhohche
p4382
aVkobave
p4383
aVnirodok
p4384
aVkorarr
p4385
aVruj
p4386
aVnirodhon
p4387
aVgyn
p4388
aVtolpety
p4389
aVchaild
p4390
aVniontoron
p4391
aVsahahjo
p4392
aVsohobar
p4393
aVguyani
p4394
aVtrivox
p4395
aVbujhle
p4396
aVchaio
p4397
aVguyni
p4398
aVchainai
p4399
aVguynolist
p4400
aVgycnologist
p4401
aVkoakmas
p4402
aVkoratey
p4403
aVgyconologist
p4404
aVsohobasa
p4405
aVgyeni
p4406
aVkoratei
p4407
aVrudh
p4408
aVkoakta
p4409
aVcomod
p4410
aVkobirajra
p4411
aVsagolo
p4412
aVgynocology
p4413
aVbujsi
p4414
aVsohobsh
p4415
aVkodbel
p4416
aVgynocologyst
p4417
aVgynocolosit
p4418
aVbujtachina
p4419
aVporechea
p4420
aVkorajabaki
p4421
aVchacchen
p4422
aVbujtam
p4423
aVkoeek
p4424
aVkoel
p4425
aVkoele
p4426
aVkoraiso
p4427
aVprescriptiono
p4428
aVcf
p4429
aVchachee
p4430
aVonirapodvabe
p4431
aVnirnoyer
p4432
aVkoralage
p4433
aVkobotor
p4434
aVgynealogist
p4435
aVbujieace
p4436
aVgynear
p4437
aVchad
p4438
aVchacsi
p4439
aVchacshe
p4440
aVtrimister
p4441
aVkoiakdin
p4442
aVchaciii
p4443
aVchachsi
p4444
aVkoralay
p4445
aVbujiyea
p4446
aVonissa
p4447
aVhoarse
p4448
aVtrikhe
p4449
aVtomodin
p4450
aVonischoyotay
p4451
aVchachsilam
p4452
aVcecal
p4453
aVcebargol
p4454
aVceazer
p4455
aVcamcare
p4456
aVkomoreee
p4457
aVcalsin
p4458
aVkomosom
p4459
aVsabdane
p4460
aVsmvob
p4461
aVsoile
p4462
aVtoxoplasma
p4463
aVbuze
p4464
aVcalculated
p4465
aVnipl
p4466
aVhaowar
p4467
aVbuziye
p4468
aVkomtasa
p4469
aVcalcical
p4470
aVbuzlam
p4471
aVcalciamer
p4472
aVkomoreao
p4473
aVparoblem
p4474
aVniraja
p4475
aVsabdhonota
p4476
aVcancieve
p4477
aVtratey
p4478
aVsokalew
p4479
aVbutami
p4480
aVbute
p4481
aVbutechi
p4482
aVcanada
p4483
aVonakh
p4484
aVsokalay
p4485
aVonakhankhito
p4486
aVkomola
p4487
aVhoceceamr
p4488
aVonakhankito
p4489
aVonichha
p4490
aVbuthta
p4491
aVbutkomor
p4492
aVparmecy
p4493
aVkonp
p4494
aVcalci
p4495
aVcalboo
p4496
aVbuzta
p4497
aVkonmasher
p4498
aVparragnency
p4499
aVcaesarian
p4500
aVhardly
p4501
aVcaesar
p4502
aVparsend
p4503
aVcaculator
p4504
aVcaci
p4505
aVtrainy
p4506
aVhoccee
p4507
aVsojj
p4508
aVparram
p4509
aVcachana
p4510
aVcaai
p4511
aVkonomashe
p4512
aVparsab
p4513
aVtranexamic
p4514
aVkonora
p4515
aVbyatho
p4516
aVtrai
p4517
aVtraditional
p4518
aVcalbomax
p4519
aVtransvaginal
p4520
aVtpe
p4521
aVkomti
p4522
aVparodorsi
p4523
aVongsheo
p4524
aVbuztesina
p4525
aVcakrijibi
p4526
aVtratment
p4527
aVparshina
p4528
aVkonchept
p4529
aVbyabar
p4530
aVtrace
p4531
aVparous
p4532
aVcaita
p4533
aVcaisilan
p4534
aVhapay
p4535
aVcaicilam
p4536
aVhoccge
p4537
aVhamida
p4538
aVkomkore
p4539
aVonaker
p4540
aVsntom
p4541
aVhaite
p4542
aVhajamkarok
p4543
aVburnal
p4544
aVsokhale
p4545
aVtraymistar
p4546
aVnirdeshonai
p4547
aVburoktikor
p4548
aVhajir
p4549
aVsmel
p4550
aVhakla
p4551
aVparlen
p4552
aVsmelly
p4553
aVsmer
p4554
aVhobart
p4555
aVcashi
p4556
aVkomaley
p4557
aVnirdhisto
p4558
aVtreatmant
p4559
aVsohorer
p4560
aVcayteci
p4561
aVrusalt
p4562
aVceazar
p4563
aVparjonta
p4564
aVbullun
p4565
aVkolhon
p4566
aVceack
p4567
aVhobaki
p4568
aVccontraceptive
p4569
aVrvnora
p4570
aVnirdidhay
p4571
aVccholkay
p4572
aVsohonas
p4573
aVbume
p4574
aVtreatmnt
p4575
aVsadchondobud
p4576
aVhasab
p4577
aVkolojirar
p4578
aVkoorcilm
p4579
aVcconciv
p4580
aVchaitac
p4581
aVkontate
p4582
aVcarvixs
p4583
aVharniya
p4584
aVnirasai
p4585
aVhochchilona
p4586
aVhalpa
p4587
aVkomchhe
p4588
aVharmon
p4589
aVkomdom
p4590
aVhalpe
p4591
aVpresence
p4592
aVkomecha
p4593
aVbustesina
p4594
aVhochchilo
p4595
aVcanvic
p4596
aVhobekina
p4597
aVpresentaion
p4598
aVcans
p4599
aVpresenteion
p4600
aVhochcilo
p4601
aVtough
p4602
aVpresenation
p4603
aVkomcekina
p4604
aVcarvix
p4605
aVparsinaj
p4606
aVcarries
p4607
aVhochhea
p4608
aVbusinessman
p4609
aVcarrage
p4610
aVcarpel
p4611
aVcarpal
p4612
aVhartbit
p4613
aVhali
p4614
aVsmk
p4615
aVnircento
p4616
aVcarey
p4617
aVcarege
p4618
aVkont
p4619
aVtottabodhane
p4620
aVhalks
p4621
aVkomcana
p4622
aVsmita
p4623
aVcholcche
p4624
aVsahajow
p4625
aVchaitei
p4626
aVrowshon
p4627
aVhbea
p4628
aVkorececen
p4629
aVnissoyota
p4630
aVparachi
p4631
aVbubble
p4632
aVrowson
p4633
aVgrupe
p4634
aVkichutaye
p4635
aVgsd
p4636
aVsalm
p4637
aVomiprazol
p4638
aVsomba
p4639
aVkorecchi
p4640
aVchilamna
p4641
aVhoitay
p4642
aVtipse
p4643
aVchilik
p4644
aVhoitapara
p4645
aVkichukkhun
p4646
aVgrp
p4647
aVgross
p4648
aVroughly
p4649
aVhbpm
p4650
aVsalwar
p4651
aVgrotho
p4652
aVpreut
p4653
aVkorechay
p4654
aVchincina
p4655
aVsombaona
p4656
aVchinchene
p4657
aVgrouping
p4658
aVgrove
p4659
aVkichukhkhon
p4660
aVgrovoboti
p4661
aVkichukhoner
p4662
aVonlu
p4663
aVkorecencen
p4664
aVsalusn
p4665
aVhiyata
p4666
aVsoftgel
p4667
aVsomathan
p4668
aVguinean
p4669
aVkidneys
p4670
aVguinee
p4671
aVguinoclogist
p4672
aVsalamualkm
p4673
aVchibay
p4674
aVguiny
p4675
aVkoreachhilam
p4676
aVsjomoyer
p4677
aVhllow
p4678
aVtisna
p4679
aVomon
p4680
aVsalaine
p4681
aVkiiii
p4682
aVchhachhi
p4683
aVgulia
p4684
aVparamarsa
p4685
aVniny
p4686
aVhaz
p4687
aVbugche
p4688
aVbug
p4689
aVchikissha
p4690
aVbuddhiman
p4691
aVsalin
p4692
aVparacitamole
p4693
aVchikay
p4694
aVchijare
p4695
aVguestik
p4696
aVchield
p4697
aVtinmase
p4698
aVchieache
p4699
aVkicukon
p4700
aVhazy
p4701
aVsaley
p4702
aVoneeeeeeek
p4703
aVkicutapco
p4704
aVsixthday
p4705
aVkoreasilam
p4706
aVpren
p4707
aVtsrik
p4708
aVkije
p4709
aVroug
p4710
aVsombavobona
p4711
aVholeio
p4712
aVpreiods
p4713
aVholeii
p4714
aVholeao
p4715
aVpreioud
p4716
aVnimmagne
p4717
aVkhyny
p4718
aVsishuet
p4719
aVsomcabona
p4720
aVsombove
p4721
aVsamika
p4722
aVkia
p4723
aVomens
p4724
aVprevia
p4725
aVsamessa
p4726
aVkibababe
p4727
aVpaowoa
p4728
aVkhyesi
p4729
aVsombonna
p4730
aVroshon
p4731
aVchokkor
p4732
aVgotiye
p4733
aVcholacol
p4734
aVcholachi
p4735
aVholoai
p4736
aVcholace
p4737
aVporaychi
p4738
aVhcv
p4739
aVgotober
p4740
aVgotodin
p4741
aVbromazepam
p4742
aVols
p4743
aVgotokale
p4744
aVholes
p4745
aVsomeone
p4746
aVpaon
p4747
aVhci
p4748
aVhistry
p4749
aVgotoo
p4750
aVomeprazol
p4751
aVchoche
p4752
aVhoiyse
p4753
aVchiser
p4754
aVbrtha
p4755
aVhiumulinr
p4756
aVkorecii
p4757
aVhoitsena
p4758
aVchiple
p4759
aVkorecho
p4760
aVbruner
p4761
aVsamanyo
p4762
aVgroho
p4763
aVhbsage
p4764
aVkichii
p4765
aVsombbabon
p4766
aVnisteg
p4767
aVhiumuln
p4768
aVkichudn
p4769
aVchintam
p4770
aVhiumulin
p4771
aVchisi
p4772
aVkichdin
p4773
aVbrshi
p4774
aVtimemoto
p4775
aVhoiyesilo
p4776
aVppregnancy
p4777
aVnisto
p4778
aVgrapy
p4779
aVtimetai
p4780
aVhoiyai
p4781
aVgray
p4782
aVbs
p4783
aVchler
p4784
aVchlamydia
p4785
aVsambhab
p4786
aVsombo
p4787
aVgreatfull
p4788
aVpartnerer
p4789
aVrotacel
p4790
aVgrey
p4791
aVsombbabona
p4792
aVgrbo
p4793
aVkoreachhi
p4794
aVtitanas
p4795
aVcheyechiln
p4796
aVporeto
p4797
aVsaijonno
p4798
aVhatly
p4799
aVtogbog
p4800
aVguracca
p4801
aVhatleie
p4802
aVtrst
p4803
aVtohon
p4804
aVruce
p4805
aVtrry
p4806
aVkivable
p4807
aVsoltuion
p4808
aVruchibordok
p4809
aVhoagase
p4810
aVskomasa
p4811
aVchantay
p4812
aVporene
p4813
aVbujhassen
p4814
aVporbashi
p4815
aVhatori
p4816
aVkitartho
p4817
aVtobao
p4818
aVkissukhon
p4819
aVtobea
p4820
aVsobcha
p4821
aVsaiter
p4822
aVrte
p4823
aVchascce
p4824
aVchasa
p4825
aVhoachea
p4826
aVkorbenplz
p4827
aVkisuei
p4828
aVomra
p4829
aVgune
p4830
aVkisukon
p4831
aVkorbenki
p4832
aVhoieci
p4833
aVhoieche
p4834
aVkithay
p4835
aVgurbe
p4836
aVgurbo
p4837
aVruchio
p4838
aVoniyomiti
p4839
aVparea
p4840
aVchalce
p4841
aVgutiye
p4842
aVsahobasher
p4843
aVkmm
p4844
aVhoair
p4845
aVtokno
p4846
aVnirvarjogyo
p4847
aVsaheba
p4848
aVkorayni
p4849
aVchakare
p4850
aVkndly
p4851
aVkneo
p4852
aVguto
p4853
aVtokoner
p4854
aVchaitesei
p4855
aVtrpore
p4856
aVslamalai
p4857
aVchaliay
p4858
aVchalito
p4859
aVgurbofol
p4860
aVchanges
p4861
aVkiya
p4862
aVgurboful
p4863
aVchanch
p4864
aVruchy
p4865
aVkkarap
p4866
aVnirvul
p4867
aVbujhache
p4868
aVsolsey
p4869
aVhoaiar
p4870
aVkoraytay
p4871
aVchamoc
p4872
aVkkichu
p4873
aVchalta
p4874
aVkorayselm
p4875
aVkorayo
p4876
aVporekha
p4877
aVgurdle
p4878
aVgumonor
p4879
aVprengnency
p4880
aVchassii
p4881
aVgulotei
p4882
aVkinah
p4883
aVkinase
p4884
aVnisikkto
p4885
aVoneweek
p4886
aVskeleton
p4887
aVkindlly
p4888
aVhausbad
p4889
aVhoimashik
p4890
aVrposition
p4891
aVkindy
p4892
aVchelse
p4893
aVbujajai
p4894
aVking
p4895
aVrrandomly
p4896
aVskhon
p4897
aVparamosho
p4898
aVbujaben
p4899
aVsakte
p4900
aVchepalic
p4901
aVkorcijanuay
p4902
aVtitanus
p4903
aVparameters
p4904
aVgulie
p4905
aVkijno
p4906
aVkoreachhe
p4907
aVgulite
p4908
aVkikara
p4909
aVkikre
p4910
aVbujatsi
p4911
aVchestar
p4912
aVtiumer
p4913
aVcheshtar
p4914
aVhayne
p4915
aVbuhjte
p4916
aVkillmax
p4917
aVhoiniii
p4918
aVcher
p4919
aVcheqe
p4920
aVhoio
p4921
aVbujhiya
p4922
aVtkhoni
p4923
aVhaubend
p4924
aVkirsch
p4925
aVkirtechi
p4926
aVparboil
p4927
aVparboki
p4928
aVbujete
p4929
aVsakai
p4930
aVhoiiii
p4931
aVchavchi
p4932
aVparboplz
p4933
aVchattgong
p4934
aVgumi
p4935
aVkishudin
p4936
aVhoieye
p4937
aVnishartho
p4938
aVporheke
p4939
aVprengnant
p4940
aVkorbr
p4941
aVsakalar
p4942
aVparbea
p4943
aVcheakup
p4944
aVkorbuna
p4945
aVhaua
p4946
aVparapyral
p4947
aVtkla
p4948
aVsolvent
p4949
aVchekap
p4950
aVhoijodi
p4951
aVcheharatao
p4952
aVkorcee
p4953
aVsomada
p4954
aVtkta
p4955
aVchechen
p4956
aVkiri
p4957
aVgumatao
p4958
aVbujcce
p4959
aVhatteci
p4960
aVkirini
p4961
aVkirito
p4962
aVbujeachan
p4963
aVnishek
p4964
aVjaniyesilam
p4965
aVkedney
p4966
aVcomon
p4967
aVjonmale
p4968
aVswamir
p4969
aVpragnesy
p4970
aVspanil
p4971
aVdiyasay
p4972
aVdiyasan
p4973
aVfemaxzole
p4974
aVnuya
p4975
aVfemecon
p4976
aVdiyachi
p4977
aVdiyachen
p4978
aVjonmodana
p4979
aVinterrupt
p4980
aVswing
p4981
aVfemur
p4982
aVfemxzol
p4983
aVdivhan
p4984
aVintercurrent
p4985
aVnuts
p4986
aVintercrs
p4987
aVshamike
p4988
aVjonmai
p4989
aVjonkon
p4990
aVintracal
p4991
aVdiyechio
p4992
aVporsjontovole
p4993
aVjonie
p4994
aVspelling
p4995
aVspeed
p4996
aVfelechen
p4997
aVpreagnant
p4998
aVshomoykaal
p4999
aVsuture
p5000
aViq
p5001
aVdkhache
p5002
aVintercross
p5003
aVjonio
p5004
aVjonipather
p5005
aVspecaalist
p5006
aVdj
p5007
aVspeam
p5008
aVdizziness
p5009
aVfelsa
p5010
aVsuyea
p5011
aVintrest
p5012
aVsuyle
p5013
aVintravaginal
p5014
aVothirotai
p5015
aVditew
p5016
aVjonnosohobash
p5017
aVjonnotry
p5018
aVinstruc
p5019
aVfetilization
p5020
aVsystems
p5021
aVfetnet
p5022
aVinsimet
p5023
aVfeviz
p5024
aVdisea
p5025
aVszr
p5026
aVotistic
p5027
aVjoraru
p5028
aVjorabo
p5029
aVfevruary
p5030
aVjoraw
p5031
aVporsabta
p5032
aVshondaho
p5033
aVotleki
p5034
aVdisasa
p5035
aVfhm
p5036
aVfhota
p5037
aVpashar
p5038
aVinoten
p5039
aVporsaba
p5040
aVnurocare
p5041
aVsutir
p5042
aVinstruction
p5043
aVjoper
p5044
aVsyendrome
p5045
aVsyest
p5046
aVditeci
p5047
aVshamer
p5048
aVintention
p5049
aVsoyon
p5050
aVjonoseba
p5051
aVothva
p5052
aVshomshar
p5053
aVferdous
p5054
aVdismis
p5055
aVdistrubing
p5056
aVfermacy
p5057
aVsoyar
p5058
aVinsurence
p5059
aVfertiley
p5060
aVfertilfirt
p5061
aVotijom
p5062
aVfertilityr
p5063
aVpragneny
p5064
aVfetel
p5065
aVsyntrome
p5066
aVsymto
p5067
aVsutio
p5068
aVfelat
p5069
aVsuthey
p5070
aVisup
p5071
aVjokohoni
p5072
aVfartail
p5073
aVsharar
p5074
aVjolaca
p5075
aVfartile
p5076
aVsurpafar
p5077
aVsurpavit
p5078
aVdokkher
p5079
aVjoleta
p5080
aVjokkhon
p5081
aVdokaler
p5082
aVfasting
p5083
aVdojonerto
p5084
aVspotah
p5085
aVdojoner
p5086
aVjoltesa
p5087
aVfatal
p5088
aVdoirjo
p5089
aVistirir
p5090
aVshaptha
p5091
aVsuruyp
p5092
aVoalikum
p5093
aVdoijon
p5094
aVfarmaseta
p5095
aVdompotir
p5096
aVdorcor
p5097
aVivp
p5098
aVsureity
p5099
aVive
p5100
aVspu
p5101
aVsprite
p5102
aVofd
p5103
aVoffcurce
p5104
aVsurgen
p5105
aVsharil
p5106
aVfarmachi
p5107
aVdophaston
p5108
aVitsa
p5109
aVsurgry
p5110
aVfaridpur
p5111
aVdonnovat
p5112
aVsurjer
p5113
aVshomoiyer
p5114
aVjokiporno
p5115
aVdonder
p5116
aVsharee
p5117
aVsurly
p5118
aVdopashe
p5119
aVshakier
p5120
aVjomar
p5121
aVsus
p5122
aVjonamanor
p5123
aVsustained
p5124
aVspmam
p5125
aVfebruaryte
p5126
aVjonanggo
p5127
aVsusthotar
p5128
aVfect
p5129
aVspm
p5130
aVisit
p5131
aVsusthovhabe
p5132
aVdoaya
p5133
aVoggota
p5134
aVsphobas
p5135
aVdlac
p5136
aVsperulina
p5137
aVirrugular
p5138
aVshampurno
p5139
aVspermto
p5140
aVjonepoth
p5141
aVirregullar
p5142
aVsuter
p5143
aVfelasi
p5144
aVisabgol
p5145
aVdoier
p5146
aVdober
p5147
aVdock
p5148
aVjomay
p5149
aVshomoshai
p5150
aVothat
p5151
aVpreagnanchy
p5152
aVdoge
p5153
aVothate
p5154
aVothba
p5155
aVspontaneously
p5156
aVoradon
p5157
aVdodi
p5158
aVdoccintai
p5159
aVdodho
p5160
aVissche
p5161
aVisscha
p5162
aVdoctory
p5163
aVsusongbad
p5164
aVsusp
p5165
aVoffiuce
p5166
aVsuspecting
p5167
aVdoctoe
p5168
aVdocrer
p5169
aVjonaage
p5170
aVjommoj
p5171
aVshomoae
p5172
aVtabacha
p5173
aVsovaboto
p5174
aVdiamer
p5175
aVpragnecy
p5176
aVfolice
p5177
aVjuky
p5178
aVfolicel
p5179
aVdiagonest
p5180
aVjulai
p5181
aVoura
p5182
aVdiaeci
p5183
aVfolicle
p5184
aVfolicon
p5185
aVdiacillo
p5186
aVtakb
p5187
aVfolinext
p5188
aVnsaid
p5189
aVfolisen
p5190
aVdiachelen
p5191
aVprecious
p5192
aVdiacha
p5193
aVimpressions
p5194
aVjunaggo
p5195
aVfolete
p5196
aVina
p5197
aVjukhi
p5198
aVsosthotar
p5199
aVfoca
p5200
aVdibaties
p5201
aVfoet
p5202
aVdibanki
p5203
aVfoida
p5204
aVdiaybeytics
p5205
aVdiaybetics
p5206
aVdiata
p5207
aVsostu
p5208
aVtajbir
p5209
aVnrte
p5210
aVdiaselo
p5211
aVinauguration
p5212
aVtajola
p5213
aVdiasacen
p5214
aVjuchche
p5215
aVdiarrohea
p5216
aVshaad
p5217
aVjudii
p5218
aVsgotik
p5219
aVsezda
p5220
aVfoldin
p5221
aVshoontan
p5222
aVjunipothy
p5223
aVfoliz
p5224
aVtakeni
p5225
aVkabena
p5226
aVimediatly
p5227
aVforobotte
p5228
aVimature
p5229
aVdhorona
p5230
aVkacakaci
p5231
aVkacar
p5232
aVprediction
p5233
aVova
p5234
aVnpain
p5235
aVshoptahor
p5236
aVsetra
p5237
aVseto
p5238
aVdhorjohin
p5239
aVtalikata
p5240
aVopokorito
p5241
aVtalikati
p5242
aVnoytoba
p5243
aVovalationer
p5244
aVovalot
p5245
aVikhana
p5246
aVkachta
p5247
aVdhorkar
p5248
aVdibayn
p5249
aVimfomation
p5250
aVsortie
p5251
aVfollic
p5252
aVdiabates
p5253
aVfollicales
p5254
aVfollicels
p5255
aVsosse
p5256
aVjurney
p5257
aVfollowing
p5258
aVdhuktese
p5259
aVfollows
p5260
aVdhukee
p5261
aVforekka
p5262
aVjyy
p5263
aVimplantion
p5264
aVtaklao
p5265
aVsexliquied
p5266
aVimplantatiin
p5267
aVimpediment
p5268
aVtaklio
p5269
aVimmotile
p5270
aVdhu
p5271
aVnra
p5272
aVpossbility
p5273
aVsosile
p5274
aVdibea
p5275
aVtaipar
p5276
aVsotar
p5277
aVdimmbanu
p5278
aVfiofol
p5279
aVjory
p5280
aVdimbano
p5281
aVinferility
p5282
aVfirey
p5283
aVsottei
p5284
aVjotdur
p5285
aVpreanat
p5286
aVoppeka
p5287
aVjortisi
p5288
aVtadan
p5289
aVdilea
p5290
aVoibo
p5291
aVfirozi
p5292
aVdikhiacilam
p5293
aVoiche
p5294
aVjotito
p5295
aVdikeo
p5296
aVopparetion
p5297
aVdiiinageooo
p5298
aVdiiin
p5299
aVtadatade
p5300
aVnumbness
p5301
aVinfrtility
p5302
aVini
p5303
aVporrikha
p5304
aVporridge
p5305
aVinjeksion
p5306
aVohochena
p5307
aVinjectoin
p5308
aVdipore
p5309
aVdipen
p5310
aVdipa
p5311
aVdiognosis
p5312
aVdinthake
p5313
aVinh
p5314
aVfijikel
p5315
aVinjectin
p5316
aVsouting
p5317
aVjormanor
p5318
aVjormmo
p5319
aVfilwell
p5320
aVshondheho
p5321
aVpragnencir
p5322
aVtabletso
p5323
aVshaivabe
p5324
aViniomito
p5325
aVinjectionta
p5326
aVtabanana
p5327
aVtaggaion
p5328
aVoichi
p5329
aVjouney
p5330
aVdicillam
p5331
aVincrese
p5332
aVjoure
p5333
aVflexodex
p5334
aVshonkuchan
p5335
aVfloating
p5336
aVouchet
p5337
aVsothok
p5338
aVjownago
p5339
aVjoune
p5340
aVincompettence
p5341
aVincomlitent
p5342
aVtaileto
p5343
aVoidinto
p5344
aVtails
p5345
aVdibrn
p5346
aVfluiding
p5347
aVouishod
p5348
aVjoyer
p5349
aVflymed
p5350
aVshontar
p5351
aVincompetence
p5352
aVdiffrence
p5353
aVfixt
p5354
aVdidarul
p5355
aVshaha
p5356
aVfirty
p5357
aVdieychilam
p5358
aVdieychey
p5359
aVdieyche
p5360
aVdietcart
p5361
aVinfakson
p5362
aVdiesilen
p5363
aVnulli
p5364
aVtaharikh
p5365
aVshaddho
p5366
aVjototoko
p5367
aVsotorkoota
p5368
aVshonkhao
p5369
aVtahkle
p5370
aVfiste
p5371
aVdiebn
p5372
aVinduction
p5373
aVindividual
p5374
aVfists
p5375
aVdieace
p5376
aVdidhai
p5377
aVtahka
p5378
aVoay
p5379
aVjohn
p5380
aVsharirer
p5381
aVsthanea
p5382
aVosartil
p5383
aVekbaar
p5384
aVshilai
p5385
aVekahnei
p5386
aVjawi
p5387
aVsubstance
p5388
aVjawr
p5389
aVshofolota
p5390
aVjambura
p5391
aVesechili
p5392
aVeiter
p5393
aVeitay
p5394
aVshigroy
p5395
aVeseshe
p5396
aVeimaser
p5397
aVstethscope
p5398
aVjamaben
p5399
aVshohbash
p5400
aVshidhho
p5401
aVshohobaser
p5402
aVosesh
p5403
aVjauya
p5404
aVekbochor
p5405
aVekbom
p5406
aVjanannn
p5407
aVeragular
p5408
aVoshudter
p5409
aVsthiri
p5410
aVekhna
p5411
aVeranor
p5412
aVekhano
p5413
aVercage
p5414
aVjatobar
p5415
aVjanaleo
p5416
aVjalassi
p5417
aVekgon
p5418
aVoshad
p5419
aVeker
p5420
aVekdum
p5421
aVsubhu
p5422
aVjanaine
p5423
aVprblmr
p5424
aVekdika
p5425
aVjaurney
p5426
aVekdami
p5427
aVjaurny
p5428
aVekgan
p5429
aVjbar
p5430
aVesoral
p5431
aVobostaay
p5432
aVeemergency
p5433
aVsugaro
p5434
aVeeer
p5435
aVjeghe
p5436
aVstarcal
p5437
aVedhaning
p5438
aVedda
p5439
aVedanic
p5440
aVjeibar
p5441
aVposibily
p5442
aVjeep
p5443
aVethaning
p5444
aVethe
p5445
aVetimodda
p5446
aVeclampsia
p5447
aVecisprin
p5448
aVechse
p5449
aVechha
p5450
aVsugr
p5451
aVosombob
p5452
aVsuie
p5453
aVosomoye
p5454
aVecorix
p5455
aVjatchse
p5456
aVosobidha
p5457
aVetakivabe
p5458
aVsudh
p5459
aVstem
p5460
aVehkon
p5461
aVshohobs
p5462
aVsteaks
p5463
aVprasar
p5464
aVosmolax
p5465
aVjakana
p5466
aVoctbr
p5467
aVsudhumattro
p5468
aVjebi
p5469
aVegoise
p5470
aVesubguler
p5471
aVesup
p5472
aVobossthai
p5473
aVegerly
p5474
aVshohonash
p5475
aVjdte
p5476
aVetaii
p5477
aVstarts
p5478
aVjea
p5479
aVobosstai
p5480
aVshhob
p5481
aVshobsomoi
p5482
aVobosthe
p5483
aVjatat
p5484
aVemestop
p5485
aVstorko
p5486
aVshithil
p5487
aVpravin
p5488
aVjaniachhilam
p5489
aVjanhe
p5490
aVstpo
p5491
aVemcil
p5492
aVembryonic
p5493
aVjaneyecilam
p5494
aVshobcha
p5495
aVjanuray
p5496
aVenjectionta
p5497
aVemarjancy
p5498
aVjaneneto
p5499
aVstiff
p5500
aVemaill
p5501
aVentacyd
p5502
aVemagancy
p5503
aVelta
p5504
aVshobjana
p5505
aVstrat
p5506
aVjanetesen
p5507
aVelisa
p5508
aVengine
p5509
aVoshodgolo
p5510
aVjanjary
p5511
aVoshesh
p5512
aVendo
p5513
aVendocrinolgy
p5514
aVjaniyechen
p5515
aVstona
p5516
aVendometreosis
p5517
aVjanlm
p5518
aVjanmo
p5519
aVempcon
p5520
aVemil
p5521
aVoshit
p5522
aVendonetrium
p5523
aVendothik
p5524
aVendriocrine
p5525
aVendrofe
p5526
aVstoop
p5527
aVshobashe
p5528
aVstopped
p5529
aVstirer
p5530
aVemkom
p5531
aVjantamn
p5532
aVjannaban
p5533
aVsuitegele
p5534
aVelectricity
p5535
aVoshongkho
p5536
aVjasilo
p5537
aVjasob
p5538
aVekpas
p5539
aVstrio
p5540
aVshiraper
p5541
aVstripes
p5542
aVshobshomoyi
p5543
aVstripped
p5544
aVekokhnoii
p5545
aVshira
p5546
aVjanasuna
p5547
aVeptopic
p5548
aVeknkar
p5549
aVstrirposetiv
p5550
aVekmass
p5551
aVekknn
p5552
aVekkhn
p5553
aVobosths
p5554
aVoshudhgulo
p5555
aVjataiot
p5556
aVekitu
p5557
aVshobshoy
p5558
aVjasseina
p5559
aVjaournite
p5560
aVepith
p5561
aVposetiv
p5562
aVobserved
p5563
aVeokom
p5564
aVelaborate
p5565
aVshirts
p5566
aVshirotkater
p5567
aVshobkichui
p5568
aVjarau
p5569
aVektuu
p5570
aVshobkisui
p5571
aVjarayu
p5572
aVobosttai
p5573
aVjarce
p5574
aVshirotcut
p5575
aVobota
p5576
aVjarni
p5577
aVjarou
p5578
aVjarpn
p5579
aVjarporiman
p5580
aVstrik
p5581
aVshobol
p5582
aVeksatha
p5583
aVshirodker
p5584
aVektopi
p5585
aVjekonovabe
p5586
aVetku
p5587
aVebotioner
p5588
aVduchintai
p5589
aVdubi
p5590
aVosudgulo
p5591
aVdubble
p5592
aVosudgulu
p5593
aVobestai
p5594
aVshather
p5595
aVjinne
p5596
aVshomashar
p5597
aVfaith
p5598
aVodt
p5599
aVjite
p5600
aVodudh
p5601
aVjaboteo
p5602
aVsunlen
p5603
aVjjassana
p5604
aVjjassi
p5605
aVdroctor
p5606
aVdrlivery
p5607
aVjjonno
p5608
aVdrke
p5609
aVjabonato
p5610
aVdrutu
p5611
aVdrinking
p5612
aVjingoto
p5613
aVfagnet
p5614
aVdujonr
p5615
aVosu
p5616
aVsholy
p5617
aVjiggeas
p5618
aVduitate
p5619
aVeytar
p5620
aVduisburg
p5621
aVduintin
p5622
aVshavaik
p5623
aVjiggisha
p5624
aVfaibojel
p5625
aVeyvabe
p5626
aVduifuta
p5627
aVduidn
p5628
aVfaake
p5629
aVduibochor
p5630
aVsunche
p5631
aVdugenai
p5632
aVduekbar
p5633
aVjachchena
p5634
aVjacchilona
p5635
aVsunece
p5636
aVodike
p5637
aVostocald
p5638
aVdrink
p5639
aVdrilling
p5640
aVdouglas
p5641
aVjobin
p5642
aVdotor
p5643
aVdoti
p5644
aVshome
p5645
aVjabano
p5646
aVfalcchi
p5647
aVobastat
p5648
aVfalchi
p5649
aVsupplementary
p5650
aVfalaia
p5651
aVjaaoar
p5652
aVsharkora
p5653
aVfaler
p5654
aVsrabo
p5655
aVfallopian
p5656
aVjaam
p5657
aVobaddho
p5658
aVoey
p5659
aVjoggin
p5660
aVjaabe
p5661
aVfalsafe
p5662
aVsupplyment
p5663
aVdrings
p5664
aVjoanno
p5665
aVsuplimant
p5666
aVdried
p5667
aVosudhtar
p5668
aVjabobt
p5669
aVsreab
p5670
aVdrc
p5671
aVjna
p5672
aVportek
p5673
aVdrab
p5674
aVsuntan
p5675
aVdpt
p5676
aVjoanne
p5677
aVjnben
p5678
aVsraver
p5679
aVfalac
p5680
aVdoyai
p5681
aVjabeki
p5682
aVobbosho
p5683
aVshashurira
p5684
aVjnta
p5685
aVshashory
p5686
aVobata
p5687
aVdous
p5688
aVsunten
p5689
aVovaltin
p5690
aVobikal
p5691
aVostitto
p5692
aVodc
p5693
aVshokalew
p5694
aVshokalthake
p5695
aVjetao
p5696
aVeverythings
p5697
aVsheita
p5698
aVdyei
p5699
aVevorson
p5700
aVjaia
p5701
aVjeyeye
p5702
aVeabong
p5703
aVjfol
p5704
aVjgulo
p5705
aVjhaal
p5706
aVjhakee
p5707
aVdutor
p5708
aVjhaker
p5709
aVportray
p5710
aVduter
p5711
aVdutar
p5712
aVdutao
p5713
aVorotect
p5714
aVduybar
p5715
aVjhamelar
p5716
aVjeston
p5717
aVevebe
p5718
aVebotion
p5719
aVebonh
p5720
aVshoile
p5721
aVeberi
p5722
aVstair
p5723
aVebear
p5724
aVetrax
p5725
aVetsa
p5726
aVsujjestion
p5727
aVebare
p5728
aVosor
p5729
aVebabe
p5730
aVetukoi
p5731
aVeato
p5732
aVportu
p5733
aVjaileo
p5734
aVevagreen
p5735
aVeao
p5736
aVod
p5737
aVjere
p5738
aVshekhtre
p5739
aVevar
p5740
aVetu
p5741
aVjiboneo
p5742
aVdushito
p5743
aVduscintay
p5744
aVjhorce
p5745
aVdupuer
p5746
aVduphastun
p5747
aVjhudi
p5748
aVshear
p5749
aVpranent
p5750
aVjhukir
p5751
aVodhir
p5752
aVjhulie
p5753
aVdumaser
p5754
aVoblombon
p5755
aVjacsse
p5756
aVjiaga
p5757
aVduktar
p5758
aVostacid
p5759
aVjiban
p5760
aVdukkhe
p5761
aVdukiyecilm
p5762
aVsumita
p5763
aVextend
p5764
aVostirbud
p5765
aVsumoi
p5766
aVsulphate
p5767
aVshokara
p5768
aVsukta
p5769
aVdurbalata
p5770
aVexamind
p5771
aVjharte
p5772
aVexamo
p5773
aVobogoto
p5774
aVjagtasa
p5775
aVjagolo
p5776
aVshee
p5777
aVorokhito
p5778
aVduro
p5779
aVportjonto
p5780
aVprangency
p5781
aVdurgotona
p5782
aVosotorkotar
p5783
aVsheddho
p5784
aVoboctai
p5785
aVjhokiporno
p5786
aVsukkho
p5787
aVobobahito
p5788
aVoboatai
p5789
aVodher
p5790
aVsheboner
p5791
aVjhon
p5792
aVssac
p5793
aVontorbas
p5794
aVsetau
p5795
aVsetateo
p5796
aVkeogh
p5797
aVshunlam
p5798
aVhoyagase
p5799
aVteub
p5800
aVhoyaee
p5801
aVdaken
p5802
aVdakechi
p5803
aVdakeasilam
p5804
aVdakea
p5805
aVteviral
p5806
aVkerop
p5807
aVsomye
p5808
aVdakaysi
p5809
aVdakayse
p5810
aVshunle
p5811
aVonuvhuti
p5812
aVdakassi
p5813
aVghantay
p5814
aVpaee
p5815
aVdakan
p5816
aVhoyacce
p5817
aVseamen
p5818
aVdakhahi
p5819
aVtetunus
p5820
aVsonachi
p5821
aVkemny
p5822
aVdakhiyeci
p5823
aVdakhiyasi
p5824
aVkemonjeno
p5825
aVghachilo
p5826
aVdakhiase
p5827
aVdakhiaci
p5828
aVdakheta
p5829
aVghade
p5830
aVdakheacelam
p5831
aVdakaisi
p5832
aVdakhea
p5833
aVseasarian
p5834
aVsonasi
p5835
aVdakhayni
p5836
aVhoyasila
p5837
aVpacnat
p5838
aVtetmend
p5839
aVpacsi
p5840
aVonuvothe
p5841
aVshunechilam
p5842
aVshunecy
p5843
aVteta
p5844
aVdakainy
p5845
aVdakaici
p5846
aVdakaicelam
p5847
aVonushare
p5848
aVscijar
p5849
aVkfntu
p5850
aVghmate
p5851
aVshushu
p5852
aVkgi
p5853
aVkgub
p5854
aVpregnancyar
p5855
aVpregnancycheck
p5856
aVghohon
p5857
aVkeyeu
p5858
aVthairoaid
p5859
aVsche
p5860
aVdadateo
p5861
aVthakakale
p5862
aVnopor
p5863
aVthakale
p5864
aVthakano
p5865
aVdabaen
p5866
aVthakat
p5867
aVhowaii
p5868
aVkhacchelam
p5869
aVnorachorao
p5870
aVhoyc
p5871
aVhowever
p5872
aVdaht
p5873
aVpregnanct
p5874
aVgharthe
p5875
aVdakaccilam
p5876
aVdakacci
p5877
aVketei
p5878
aVnorcilo
p5879
aVtgake
p5880
aVnorchara
p5881
aVdairrhoye
p5882
aVdairrahoye
p5883
aVdahk
p5884
aVnorchaora
p5885
aVdainik
p5886
aVshuri
p5887
aVposutive
p5888
aVnorasora
p5889
aVghathti
p5890
aVpaeyer
p5891
aVpageance
p5892
aVhowur
p5893
aVdaia
p5894
aVghattir
p5895
aVshur
p5896
aVdakhoto
p5897
aVgfke
p5898
aVdakhtacy
p5899
aVkayekdinjabot
p5900
aVkayesila
p5901
aVdase
p5902
aVnormalbhabei
p5903
aVkaymas
p5904
aVshukhoborer
p5905
aVtentiin
p5906
aVdaro
p5907
aVkazkormo
p5908
aVdarker
p5909
aVkayek
p5910
aVporjntowsex
p5911
aVhoyechio
p5912
aVnorley
p5913
aVnorleo
p5914
aVnorlei
p5915
aVkeasi
p5916
aVkebaba
p5917
aVterai
p5918
aVojukthik
p5919
aVkeboli
p5920
aVterek
p5921
aVkbub
p5922
aVkece
p5923
aVoju
p5924
aVkaybar
p5925
aVkave
p5926
aVseeger
p5927
aVdayakare
p5928
aVdayai
p5929
aVpregnamt
p5930
aVkawaisi
p5931
aVgelao
p5932
aVdawn
p5933
aVsedative
p5934
aVpac
p5935
aVkaycilo
p5936
aVkawjar
p5937
aVpregnana
p5938
aVporjonoto
p5939
aVhoyecy
p5940
aVsonesi
p5941
aVkayache
p5942
aVdatils
p5943
aVoobstha
p5944
aVdatheao
p5945
aVnormalei
p5946
aVgenacyn
p5947
aVgelea
p5948
aVthakbai
p5949
aVshukranur
p5950
aVshuktu
p5951
aVdaler
p5952
aVdalebarer
p5953
aVdale
p5954
aVdala
p5955
aVdaktor
p5956
aVkelhe
p5957
aVshunachi
p5958
aVporjannto
p5959
aVgeyeche
p5960
aVdakno
p5961
aVhoycholo
p5962
aVtestocaps
p5963
aVgeyesilo
p5964
aVnoric
p5965
aVdakisi
p5966
aVgeyse
p5967
aVnorey
p5968
aVgeysey
p5969
aVgeysilo
p5970
aVdakiacilam
p5971
aVdakhychi
p5972
aVkelya
p5973
aVgeyese
p5974
aVdaraia
p5975
aVdaleviery
p5976
aVtested
p5977
aVpacgnt
p5978
aVkechue
p5979
aVpostuti
p5980
aVhoyech
p5981
aVkechur
p5982
aVpachae
p5983
aVgess
p5984
aVterporeo
p5985
aVporjaptoporimn
p5986
aVtese
p5987
aVdaley
p5988
aVtesed
p5989
aVtesh
p5990
aVdanamat
p5991
aVgestarnol
p5992
aVonuzai
p5993
aVsondhae
p5994
aVtesr
p5995
aVhoyeacilo
p5996
aVgestreuol
p5997
aVtestao
p5998
aVgestrnol
p5999
aVgestafion
p6000
aVdaybetik
p6001
aVdaarai
p6002
aVthakbea
p6003
aVcontinental
p6004
aVsiggarate
p6005
aVcontain
p6006
aVcontaceptive
p6007
aVcontac
p6008
aVconsumation
p6009
aVsatday
p6010
aVsatai
p6011
aVconsist
p6012
aVconsip
p6013
aVconsieve
p6014
aVconsiev
p6015
aVconsidered
p6016
aVthayrin
p6017
aVpregnenant
p6018
aVghurie
p6019
aVconsft
p6020
aVghuriye
p6021
aVthayrod
p6022
aVghurla
p6023
aVconsefe
p6024
aVcontiniue
p6025
aVcontinnu
p6026
aVcontinued
p6027
aVsomporku
p6028
aVpaill
p6029
aVsatik
p6030
aVcoracal
p6031
aVhoteparsi
p6032
aVsigarett
p6033
aVcopi
p6034
aVsigerian
p6035
aVpregnectcy
p6036
aVhotchse
p6037
aVcontunie
p6038
aVkhauala
p6039
aVcontrols
p6040
aVcontrole
p6041
aVhotchilo
p6042
aVghuraccilo
p6043
aVcontraindicated
p6044
aVcontraction
p6045
aVkhasilam
p6046
aVnoarmal
p6047
aVghuraii
p6048
aVkhassena
p6049
aVkhassilo
p6050
aVhotchiloje
p6051
aVconsecv
p6052
aVghusi
p6053
aVnnite
p6054
aVconchep
p6055
aVginy
p6056
aVconcevie
p6057
aVsomoymoto
p6058
aVontosonta
p6059
aVthekecilam
p6060
aVgisesilam
p6061
aVconceotion
p6062
aVthekeii
p6063
aVkhawaiselam
p6064
aVginorologi
p6065
aVgiven
p6066
aVconceavi
p6067
aVthekewo
p6068
aVnleeding
p6069
aVcomunity
p6070
aVcomplit
p6071
aVkhawite
p6072
aVcomparison
p6073
aVgiyecea
p6074
aVthethoscop
p6075
aVkhawor
p6076
aVconcefd
p6077
aVnodi
p6078
aVconci
p6079
aVconcieved
p6080
aVghutni
p6081
aVpregnenat
p6082
aVokhene
p6083
aVthayroyed
p6084
aVgiachilo
p6085
aVconfirmly
p6086
aVgiaci
p6087
aVsompokkho
p6088
aVgieasilam
p6089
aVsomphorko
p6090
aVginee
p6091
aVgieny
p6092
aVgifolet
p6093
aVtheeke
p6094
aVgika
p6095
aVontosorta
p6096
aVcondam
p6097
aVconcuve
p6098
aVconciver
p6099
aVconcived
p6100
aVconcip
p6101
aVgilty
p6102
aVporimanei
p6103
aVcores
p6104
aVkhaoteo
p6105
aVkhaota
p6106
aVsomvabonna
p6107
aVthakhon
p6108
aVcurry
p6109
aVthakian
p6110
aVcurent
p6111
aVsomvabonai
p6112
aVsomvabon
p6113
aVcurege
p6114
aVpregnanic
p6115
aVghorachche
p6116
aVpagnate
p6117
aVpagneantcy
p6118
aVthakj
p6119
aVghorbar
p6120
aVpagnenci
p6121
aVnomuna
p6122
aVghorbopatt
p6123
aVthakly
p6124
aVkhailei
p6125
aVghorvoboti
p6126
aVghorvodharon
p6127
aVkhainna
p6128
aVghorache
p6129
aVkhaio
p6130
aVcustard
p6131
aVsbcheye
p6132
aVdaagta
p6133
aVpagnad
p6134
aVhowaie
p6135
aVkhaccina
p6136
aVczar
p6137
aVkhacea
p6138
aVkhachce
p6139
aVpagnanchi
p6140
aVcyste
p6141
aVthakci
p6142
aVpagnancyer
p6143
aVcys
p6144
aVkhacho
p6145
aVcycleiregular
p6146
aVcycl
p6147
aVcycale
p6148
aVhowae
p6149
aVpregnaned
p6150
aVkhaddho
p6151
aVkhaewa
p6152
aVkhagrachori
p6153
aVhovay
p6154
aVcycst
p6155
aVthakbay
p6156
aVthaksena
p6157
aVkhaisilm
p6158
aVcounting
p6159
aVkhanea
p6160
aVkhanei
p6161
aVghumaisi
p6162
aVsideeffict
p6163
aVkhaneo
p6164
aVcouncilorer
p6165
aVsomridho
p6166
aVkhano
p6167
aVsava
p6168
aVghumachcilm
p6169
aVthanddar
p6170
aVhotoamar
p6171
aVsompurono
p6172
aVthanked
p6173
aVkhaoata
p6174
aVthankr
p6175
aVsideo
p6176
aVonujaiyee
p6177
aVkhaoir
p6178
aVcoseve
p6179
aVsomprokke
p6180
aVokha
p6181
aVpotamosso
p6182
aVkhanda
p6183
aVsomsshar
p6184
aVsayak
p6185
aVpah
p6186
aVcryptin
p6187
aVcrying
p6188
aVcrvh
p6189
aVkhaitai
p6190
aVghotanor
p6191
aVghotchy
p6192
aVnomi
p6193
aVthaktesa
p6194
aVthalar
p6195
aVthaku
p6196
aVthakuni
p6197
aVghotlo
p6198
aVhotu
p6199
aVcrct
p6200
aVcraze
p6201
aVcravings
p6202
aVsomsy
p6203
aVhotte
p6204
aVkhakci
p6205
aVghreto
p6206
aVcrenated
p6207
aVgeight
p6208
aVdayely
p6209
aVdayen
p6210
aVdeschen
p6211
aVdesambor
p6212
aVhyeselm
p6213
aVdermovate
p6214
aVtaratatri
p6215
aVshoshor
p6216
aVpragnanser
p6217
aVderke
p6218
aVtarateri
p6219
aVderikore
p6220
aVkamelia
p6221
aVoviggo
p6222
aVfutbe
p6223
aVoperationer
p6224
aVdeprsn
p6225
aVpossoblity
p6226
aVoperastion
p6227
aVtarba
p6228
aVkamracche
p6229
aVfutse
p6230
aVfuttese
p6231
aVkaly
p6232
aVtaratarai
p6233
aVtaratara
p6234
aVhygenic
p6235
aVfulse
p6236
aVdetu
p6237
aVoveri
p6238
aVpragnaser
p6239
aVserakam
p6240
aVfumarate
p6241
aVtarahuro
p6242
aVoversight
p6243
aVfundal
p6244
aVkalkei
p6245
aVkamrassilo
p6246
aVtarapy
p6247
aVdessen
p6248
aVdesse
p6249
aVkall
p6250
aVoveryte
p6251
aVhynii
p6252
aVpragnanter
p6253
aVfupa
p6254
aVhygiene
p6255
aVpreganant
p6256
aVkalor
p6257
aVkalkeo
p6258
aVkamre
p6259
aVkamriye
p6260
aVfuturer
p6261
aVshotorko
p6262
aVgachilm
p6263
aVshotruta
p6264
aVdelhlam
p6265
aVdelhiyesi
p6266
aVkanser
p6267
aVposte
p6268
aVdelhe
p6269
aVdelhacche
p6270
aVdeleybari
p6271
aVsoptakhanak
p6272
aVhuzbnd
p6273
aVhuzban
p6274
aVtariky
p6275
aVgahini
p6276
aVgaiear
p6277
aVovostai
p6278
aVdeleiveryr
p6279
aVtarirkh
p6280
aVtaritari
p6281
aVovostay
p6282
aVkaoaite
p6283
aVnostohoajai
p6284
aVkalai
p6285
aVtarikheu
p6286
aVgachea
p6287
aVfz
p6288
aVnostp
p6289
aVopenly
p6290
aVgaas
p6291
aVoviulation
p6292
aVhyase
p6293
aVovlution
p6294
aVgabatin
p6295
aVovlutue
p6296
aVkancha
p6297
aVgachen
p6298
aVovocstai
p6299
aVgabot
p6300
aVdener
p6301
aVtarikeo
p6302
aVposstive
p6303
aVsemeen
p6304
aVdemise
p6305
aVsemaiye
p6306
aVkannar
p6307
aVdelta
p6308
aVoishodh
p6309
aVnostoo
p6310
aVfullness
p6311
aVsorboses
p6312
aVhysbend
p6313
aVshorboter
p6314
aVfregnency
p6315
aVkahon
p6316
aVidanink
p6317
aVdhekhanor
p6318
aVsoriyot
p6319
aVpossiilyte
p6320
aVdhekhacci
p6321
aVidaing
p6322
aVdhekbo
p6323
aVoikana
p6324
aVdhekanur
p6325
aVfridayr
p6326
aVnovo
p6327
aVictrir
p6328
aVkaichaichi
p6329
aVdheakeace
p6330
aVkaicilam
p6331
aVdharun
p6332
aVichting
p6333
aVdharonah
p6334
aVtanks
p6335
aVdhekale
p6336
aVfrisium
p6337
aVshorbot
p6338
aVpreegnent
p6339
aVovaltine
p6340
aViimmergency
p6341
aVfragment
p6342
aVsestem
p6343
aVovaluationer
p6344
aVovalute
p6345
aVovalutio
p6346
aVkae
p6347
aVkaeasa
p6348
aVtanaa
p6349
aVshorboscho
p6350
aVtanahole
p6351
aVifter
p6352
aVdhog
p6353
aVkagoje
p6354
aVkagojer
p6355
aVovam
p6356
aVnowabazar
p6357
aVkaha
p6358
aVfreand
p6359
aVdhile
p6360
aVfreash
p6361
aVifterite
p6362
aVgainical
p6363
aVfrisy
p6364
aVdhap
p6365
aVovelution
p6366
aVdeyinik
p6367
aVfufato
p6368
aVdeyesilo
p6369
aVkajh
p6370
aVdeyecilo
p6371
aVdeyechhe
p6372
aVsermp
p6373
aVdeyece
p6374
aVdeyeacilo
p6375
aVshorjjo
p6376
aVpreferred
p6377
aVserkel
p6378
aVhytech
p6379
aVporokhonei
p6380
aVkakar
p6381
aVfulbe
p6382
aVhysomide
p6383
aVkakoli
p6384
aVkakrone
p6385
aVsorbouccho
p6386
aVkakrul
p6387
aVkajk
p6388
aVtanny
p6389
aVdeylivary
p6390
aVtanst
p6391
aVichchuk
p6392
aVsesha
p6393
aVfrloo
p6394
aVpragnatice
p6395
aVsesaj
p6396
aVovbas
p6397
aVdhakta
p6398
aVshoriochs
p6399
aVkaisilm
p6400
aViccah
p6401
aVsordy
p6402
aVtansin
p6403
aVkaiteci
p6404
aVtansione
p6405
aVkaitichi
p6406
aVkaiwar
p6407
aVftsh
p6408
aVfuchka
p6409
aVdfrent
p6410
aVnovai
p6411
aVdeyoar
p6412
aVpragnaseta
p6413
aVsoriasos
p6414
aVnost
p6415
aVgainicologist
p6416
aVovstay
p6417
aVsonigram
p6418
aVdecemborer
p6419
aVojhocho
p6420
aVteheke
p6421
aVdeceition
p6422
aVhoysey
p6423
aVdecchi
p6424
aVnorments
p6425
aVhoysena
p6426
aVopach
p6427
aVdecemder
p6428
aVpregn
p6429
aVhoysche
p6430
aVdecam
p6431
aVshuie
p6432
aVkathate
p6433
aVtelapya
p6434
aVsegola
p6435
aVshuina
p6436
aVporko
p6437
aVkathinnor
p6438
aVdeayr
p6439
aVpregnace
p6440
aVdeayase
p6441
aVkatakati
p6442
aVhoyvtahole
p6443
aVnormozospermia
p6444
aVdehydresion
p6445
aVdehke
p6446
aVgastetional
p6447
aVseirokom
p6448
aVopaker
p6449
aVnormojospermia
p6450
aVkashle
p6451
aVgastics
p6452
aVopaiya
p6453
aVgataner
p6454
aVkasle
p6455
aVpragenent
p6456
aVteenbarer
p6457
aVhoywer
p6458
aVhoyway
p6459
aVgastrk
p6460
aVseibar
p6461
aVporlem
p6462
aVdecison
p6463
aVsehrite
p6464
aVgastrocon
p6465
aVteel
p6466
aVkasey
p6467
aVgaysy
p6468
aVshuite
p6469
aVdd
p6470
aVhoyesil
p6471
aVtemrature
p6472
aVgecea
p6473
aVporjpnto
p6474
aVgechhea
p6475
aVdclm
p6476
aVdcember
p6477
aVporjotto
p6478
aVpregnamcyr
p6479
aVddalivery
p6480
aVsongkranti
p6481
aVsongkhpa
p6482
aVdayy
p6483
aVtendenci
p6484
aVdayporjonto
p6485
aVkauwa
p6486
aVtendese
p6487
aVpablo
p6488
aVkauwai
p6489
aVkauwale
p6490
aVtenecidmf
p6491
aVtenction
p6492
aVdeasilan
p6493
aVhoyesio
p6494
aVgeaselam
p6495
aVojoj
p6496
aVgckhon
p6497
aVsongshar
p6498
aVdearamar
p6499
aVdeao
p6500
aVdeanna
p6501
aVposto
p6502
aVsongroho
p6503
aVgear
p6504
aVkatir
p6505
aVhoygalo
p6506
aVdeaise
p6507
aVgeasa
p6508
aVsegare
p6509
aVdeacilam
p6510
aVpaassi
p6511
aVdeachen
p6512
aVkatokkhan
p6513
aVkatomas
p6514
aVkatone
p6515
aVtelukast
p6516
aVpregnal
p6517
aVdeacy
p6518
aVfplic
p6519
aVhpcche
p6520
aVgasse
p6521
aVporoborte
p6522
aVovvaser
p6523
aVtarporotar
p6524
aVgallbladder
p6525
aVdekhitam
p6526
aVhuoi
p6527
aVpreganyl
p6528
aVgaly
p6529
aVovvigo
p6530
aVhumulinn
p6531
aVtarporao
p6532
aVhumruvela
p6533
aVdekhicilam
p6534
aVshoyor
p6535
aVdekhiace
p6536
aVpragnanat
p6537
aVhumaira
p6538
aVdekheyse
p6539
aVhula
p6540
aVowar
p6541
aVhucog
p6542
aVkarce
p6543
aVtartaric
p6544
aVpregenecy
p6545
aVpragnancyte
p6546
aVdekhono
p6547
aVovsthi
p6548
aVdekshi
p6549
aVdeksen
p6550
aVgainoclojist
p6551
aVgainocologest
p6552
aVdeklan
p6553
aVdekkai
p6554
aVhusdand
p6555
aVovulasion
p6556
aVhusbnt
p6557
aVovulution
p6558
aVdekisa
p6559
aVhusbands
p6560
aVkaoro
p6561
aVdekici
p6562
aVdekiaci
p6563
aVporobortitie
p6564
aVovulettablet
p6565
aVdekhvo
p6566
aVkaoyer
p6567
aVovulit
p6568
aVhusbanded
p6569
aVhusbebnd
p6570
aVdeiche
p6571
aVgampa
p6572
aVdekhcina
p6573
aVsontn
p6574
aVnoromzospermia
p6575
aVsekar
p6576
aVdekesi
p6577
aVkaroniya
p6578
aVtaykai
p6579
aVseka
p6580
aVdekaw
p6581
aVsejoure
p6582
aVdekassi
p6583
aVdekhachhe
p6584
aVdekase
p6585
aVoxizen
p6586
aVshubar
p6587
aVkartha
p6588
aVoxycone
p6589
aVgarvaboti
p6590
aVkarur
p6591
aVkasao
p6592
aVshudho
p6593
aVdeise
p6594
aVdeine
p6595
aVshuae
p6596
aVdekheace
p6597
aVdekhachhi
p6598
aVgarbopat
p6599
aVhubyr
p6600
aVopase
p6601
aVsooooo
p6602
aVowosod
p6603
aVtastysaline
p6604
aVkariyase
p6605
aVdekhatsena
p6606
aVdekhatesi
p6607
aVkarjokar
p6608
aVseklu
p6609
aVseki
p6610
aVdekhasii
p6611
aVhtoler
p6612
aVdekhanr
p6613
aVdekhanai
p6614
aVsony
p6615
aVtatikh
p6616
aVdekhaitam
p6617
aVtato
p6618
aVgarb
p6619
aVgarbasayer
p6620
aVtattho
p6621
aVhtrip
p6622
aVzz
p6623
aVhicche
p6624
aVankkhon
p6625
aVaky
p6626
aVletroz
p6627
aVletrozle
p6628
aVaktuku
p6629
aVaktuki
p6630
aVmarystow
p6631
aVbesikhkhon
p6632
aVvegitables
p6633
aVvegitable
p6634
aVqlke
p6635
aVbesides
p6636
aVqmar
p6637
aVreuast
p6638
aVbodliye
p6639
aVpodakkap
p6640
aVpolisistic
p6641
aVmobility
p6642
aVpela
p6643
aVwather
p6644
aVmartece
p6645
aVprogrmme
p6646
aVakru
p6647
aVaugast
p6648
aVauge
p6649
aVvegetabel
p6650
aVbesio
p6651
aVletro
p6652
aValager
p6653
aVvejano
p6654
aVatky
p6655
aVkronor
p6656
aVbestoba
p6657
aVbochoer
p6658
aValestor
p6659
aVmittur
p6660
aVvengay
p6661
aVatmpt
p6662
aVqami
p6663
aValepatik
p6664
aVatodi
p6665
aVbessy
p6666
aVbeshie
p6667
aVprogesteron
p6668
aVregilar
p6669
aVatotu
p6670
aVretroplacentel
p6671
aVmasaro
p6672
aVbesoya
p6673
aVnamto
p6674
aVmkast
p6675
aValargir
p6676
aVmmadam
p6677
aVmasak
p6678
aVletorle
p6679
aVmmhs
p6680
aVatokisur
p6681
aVkrlena
p6682
aVqst
p6683
aVunifer
p6684
aVakmasar
p6685
aVbograi
p6686
aVpetrol
p6687
aVakmasai
p6688
aVbesei
p6689
aVbohik
p6690
aVpetr
p6691
aVbesash
p6692
aVmoddoe
p6693
aVrefference
p6694
aVveeson
p6695
aVuthselo
p6696
aVprotibon
p6697
aVakkebare
p6698
aVprothum
p6699
aVakjaigao
p6700
aVpaul
p6701
aVmarker
p6702
aVweeeks
p6703
aVlaglea
p6704
aVuneanted
p6705
aVberte
p6706
aVakhtu
p6707
aVberry
p6708
aVakhoono
p6709
aVvebei
p6710
aVuthsi
p6711
aValgia
p6712
aVbeser
p6713
aVuthley
p6714
aVakre
p6715
aVreveal
p6716
aVmoddee
p6717
aVakporjay
p6718
aVakpese
p6719
aVmarriege
p6720
aVuthlay
p6721
aVakorsito
p6722
aVwbc
p6723
aVakonto
p6724
aVwbcs
p6725
aVautistic
p6726
aVprotibondhe
p6727
aVneurozan
p6728
aVlevoxin
p6729
aVakohono
p6730
aVprogrnova
p6731
aVmoddheme
p6732
aVaknono
p6733
aVlexotanil
p6734
aVprotibondi
p6735
aVbogagalo
p6736
aVaknei
p6737
aVprieoad
p6738
aVava
p6739
aVmoddhie
p6740
aVweaight
p6741
aVatki
p6742
aVvengeche
p6743
aValgine
p6744
aVasthy
p6745
aValtrasonogrm
p6746
aVprotthe
p6747
aVprimam
p6748
aVresuit
p6749
aValtrasonographi
p6750
aValtrasonograph
p6751
aValtrasonografi
p6752
aValtrasonograf
p6753
aValtrasongram
p6754
aVvuji
p6755
aVnichee
p6756
aValtrasonugraphy
p6757
aValtrasnogram
p6758
aVblt
p6759
aVmisiker
p6760
aValtradonograph
p6761
aValtradonograhpy
p6762
aVbltam
p6763
aVvujlam
p6764
aValtosunu
p6765
aVasustho
p6766
aVuthache
p6767
aValternate
p6768
aValtasunography
p6769
aVmashikr
p6770
aVmasikwr
p6771
aValtasounds
p6772
aVvugtaci
p6773
aVbloold
p6774
aVmiscarege
p6775
aVastaci
p6776
aVpeghnet
p6777
aVnichao
p6778
aVunprotection
p6779
aVamaii
p6780
aVbextrum
p6781
aVastagen
p6782
aVastay
p6783
aVblona
p6784
aVpgarnase
p6785
aVnewcomer
p6786
aValylestrenol
p6787
aVmasover
p6788
aVvetamin
p6789
aVamadee
p6790
aVastey
p6791
aVunprotechted
p6792
aVmischarage
p6793
aVlekhsi
p6794
aVbloodgroup
p6795
aVmiscourriage
p6796
aVprimane
p6797
aVasthae
p6798
aVmiscrge
p6799
aVasthama
p6800
aVmasole
p6801
aVpetne
p6802
aVregiular
p6803
aValtara
p6804
aVbetekrom
p6805
aVvuler
p6806
aValltrasono
p6807
aVlerosol
p6808
aValltacunu
p6809
aValleygest
p6810
aVmisu
p6811
aVprotombar
p6812
aVathcho
p6813
aVbobessot
p6814
aVprotoi
p6815
aVmashallah
p6816
aVboat
p6817
aVuthchi
p6818
aVvuna
p6819
aVatio
p6820
aVkrrtsi
p6821
aVretopar
p6822
aVprotobere
p6823
aVbobohar
p6824
aVvure
p6825
aVatk
p6826
aValipur
p6827
aValhumdulillah
p6828
aVprotitar
p6829
aVpytar
p6830
aVallahorrhomate
p6831
aValtarsonogram
p6832
aVboasts
p6833
aVateo
p6834
aVkrteche
p6835
aVataiki
p6836
aVleparscopy
p6837
aVatak
p6838
aVpaway
p6839
aValra
p6840
aVleporoscopy
p6841
aVprottasito
p6842
aVpoddhiti
p6843
aVmashikar
p6844
aVmisscrgr
p6845
aVrete
p6846
aVventalin
p6847
aVmisscsarrige
p6848
aVretest
p6849
aVatateo
p6850
aVmisskareg
p6851
aVprotraction
p6852
aVmistiti
p6853
aValneed
p6854
aVbethaa
p6855
aVmistrito
p6856
aValmex
p6857
aVpodokhap
p6858
aValmas
p6859
aVpeyechii
p6860
aVpyne
p6861
aVweekpor
p6862
aVpetje
p6863
aVmodye
p6864
aVlikhea
p6865
aVaisb
p6866
aVbabt
p6867
aVlikhecen
p6868
aVbabteci
p6869
aVulttssonogram
p6870
aVlikheche
p6871
aVultrsound
p6872
aVairomok
p6873
aVwiff
p6874
aVbolas
p6875
aVprosrb
p6876
aVbeler
p6877
aVprosraver
p6878
aVairin
p6879
aVbelaio
p6880
aVlikhesen
p6881
aVpobortite
p6882
aVwifp
p6883
aVkoyeta
p6884
aVwift
p6885
aVbel
p6886
aVplacentra
p6887
aVbabyebabyr
p6888
aVriki
p6889
aVpeshent
p6890
aVnegaqtive
p6891
aVbolasilam
p6892
aVaishomoy
p6893
aVutsya
p6894
aVqusgulur
p6895
aVlikese
p6896
aVkprboo
p6897
aVmonehoi
p6898
aVwhitout
p6899
aVmonehosse
p6900
aVpogativ
p6901
aVajjke
p6902
aVkpra
p6903
aVutsi
p6904
aVneei
p6905
aVuml
p6906
aVaismy
p6907
aVnajma
p6908
aVbelivery
p6909
aVprosser
p6910
aVbolachen
p6911
aVaitey
p6912
aVprocando
p6913
aVumactin
p6914
aVqustiin
p6915
aVvassa
p6916
aVkoyner
p6917
aVbabselam
p6918
aVkoymash
p6919
aVaisomoy
p6920
aVumi
p6921
aVqusetion
p6922
aVbolasilan
p6923
aVbolasilen
p6924
aVmaneki
p6925
aVlikhsen
p6926
aVultrasunography
p6927
aVlikhun
p6928
aVmontro
p6929
aVaigulor
p6930
aVwillingly
p6931
aVultraspnogaram
p6932
aVultrasounder
p6933
aVbolcay
p6934
aVpescrive
p6935
aVbacchaa
p6936
aVplachentra
p6937
aVultrasonogrph
p6938
aVproamosho
p6939
aVaif
p6940
aVrabetac
p6941
aVbacchao
p6942
aVultrasonographyte
p6943
aVrimi
p6944
aVultrasonographyr
p6945
aVpathy
p6946
aVrabia
p6947
aVrabifast
p6948
aVultrasonogramer
p6949
aVbolchhilo
p6950
aVaig
p6951
aVmontheo
p6952
aVaikhana
p6953
aVlikhse
p6954
aVaimashe
p6955
aVlikhesilen
p6956
aVaimaseo
p6957
aVmonthgulo
p6958
aVbabyki
p6959
aVbolaysay
p6960
aVbabyo
p6961
aVbolaysen
p6962
aVbabyro
p6963
aVultrossonograme
p6964
aVmonthh
p6965
aVbolbam
p6966
aVmangho
p6967
aVultrosonogram
p6968
aVmonthpore
p6969
aVaikhono
p6970
aVultrosnograme
p6971
aVriksha
p6972
aVbolbeben
p6973
aVrikshar
p6974
aVbabytak
p6975
aVaikhetre
p6976
aVkoydn
p6977
aVmangsar
p6978
aVultrate
p6979
aVkoydiner
p6980
aVbolbanr
p6981
aVmiscare
p6982
aVbabae
p6983
aVbaat
p6984
aVakhatra
p6985
aVbojaicen
p6986
aVbojajabe
p6987
aVprothek
p6988
aVaxim
p6989
aVneurocen
p6990
aVnidipin
p6991
aVpitache
p6992
aVpitano
p6993
aVwekk
p6994
aVutia
p6995
aVakekdin
p6996
aVprocecing
p6997
aVprotectson
p6998
aVakebarae
p6999
aVpoe
p7000
aVmoje
p7001
aVaybarto
p7002
aVwestergreen
p7003
aVwewk
p7004
aVkrease
p7005
aVaycha
p7006
aVniki
p7007
aVribosina
p7008
aVayia
p7009
aVpelvicalyceal
p7010
aVpether
p7011
aVkrcen
p7012
aVakhatre
p7013
aVbojae
p7014
aVqueasiness
p7015
aVakhonoo
p7016
aVundery
p7017
aVvebecilm
p7018
aVweekr
p7019
aVproijon
p7020
aVporacilo
p7021
aVavokti
p7022
aVweet
p7023
aVniddle
p7024
aVmohammodpur
p7025
aVmarcher
p7026
aVaxe
p7027
aVavorstion
p7028
aVkreee
p7029
aVwegit
p7030
aVkrechilm
p7031
aVprojesteone
p7032
aVveba
p7033
aVavson
p7034
aVlglo
p7035
aVakhkono
p7036
aVreeletion
p7037
aVprothem
p7038
aVbojachsi
p7039
aVpolicictik
p7040
aVrheumatic
p7041
aVbokeche
p7042
aVquestain
p7043
aVricksha
p7044
aVbojtam
p7045
aVquik
p7046
aVproccessing
p7047
aVriggular
p7048
aVkrano
p7049
aVrighit
p7050
aVkrala
p7051
aVpiy
p7052
aVreddish
p7053
aVajtheke
p7054
aVlighty
p7055
aVajteke
p7056
aVmaonth
p7057
aVaziz
p7058
aVrigst
p7059
aVqukly
p7060
aVutrate
p7061
aVrecption
p7062
aVajono
p7063
aVutrrus
p7064
aVajonnoi
p7065
aVbaaby
p7066
aVqurbanir
p7067
aVlikca
p7068
aVmanue
p7069
aVrigular
p7070
aVaztacap
p7071
aVbojechilam
p7072
aVbepode
p7073
aVbojini
p7074
aVberete
p7075
aVredish
p7076
aVpelvis
p7077
aVpely
p7078
aVquestaion
p7079
aVquesten
p7080
aVprotecsn
p7081
aVpetey
p7082
aVaysha
p7083
aVaytaki
p7084
aVbojeye
p7085
aVakbaar
p7086
aVprostuth
p7087
aVbojhaben
p7088
aVakasathe
p7089
aVmolar
p7090
aVakaon
p7091
aVnakhal
p7092
aVride
p7093
aVridima
p7094
aVbojhta
p7095
aVunborb
p7096
aVbeppar
p7097
aVayurbedik
p7098
aVkrbane
p7099
aVprosub
p7100
aVwhater
p7101
aVmiscaraig
p7102
aVuteres
p7103
aVamakea
p7104
aVpurls
p7105
aVniacelo
p7106
aVlalcge
p7107
aVmazer
p7108
aVupokriti
p7109
aVpurnu
p7110
aVrelaible
p7111
aVasccea
p7112
aVrenport
p7113
aVnate
p7114
aVanusaare
p7115
aVascen
p7116
aVanyways
p7117
aVmaytay
p7118
aVrelaiable
p7119
aVanumanek
p7120
aVanujayee
p7121
aVmeritorious
p7122
aVanubhob
p7123
aVmero
p7124
aVaschea
p7125
aVnatal
p7126
aVmerristop
p7127
aVaschhe
p7128
aVaschije
p7129
aVpichate
p7130
aVvlovabe
p7131
aVlaparoscopic
p7132
aVments
p7133
aVlagachchi
p7134
aVmdhei
p7135
aVnauyer
p7136
aVnauya
p7137
aVlakhon
p7138
aVvivaho
p7139
aVapaon
p7140
aVasalamuayaikum
p7141
aVmensh
p7142
aVnausea
p7143
aVrenctly
p7144
aVasalamuwalaikum
p7145
aVmenstruate
p7146
aVnbr
p7147
aVmddhew
p7148
aVapach
p7149
aVpsyllium
p7150
aVaoyalikum
p7151
aVbichor
p7152
aVlaktese
p7153
aVneyear
p7154
aVmentane
p7155
aVvijsena
p7156
aVniaca
p7157
aVbichanaya
p7158
aVaodin
p7159
aVasaro
p7160
aVupolobdhi
p7161
aVasalamualaikum
p7162
aVneyase
p7163
aVmerudando
p7164
aVanswerme
p7165
aVanswering
p7166
aVvobit
p7167
aVniato
p7168
aVpease
p7169
aVlabhoinai
p7170
aVbibahi
p7171
aVmeto
p7172
aVpaypay
p7173
aVupokarer
p7174
aVmetter
p7175
aVansss
p7176
aVupoketo
p7177
aVlaproscopic
p7178
aVrekhesilo
p7179
aVmeucospel
p7180
aVasesilo
p7181
aVneyai
p7182
aVlaroscopy
p7183
aVashacha
p7184
aVupodesha
p7185
aVpec
p7186
aVpoddoto
p7187
aVmexpro
p7188
aVbishoia
p7189
aVmave
p7190
aVmetxr
p7191
aVlafate
p7192
aVusgs
p7193
aVpsble
p7194
aVvigina
p7195
aVlafalali
p7196
aVupokkreto
p7197
aVantin
p7198
aVmeshine
p7199
aVpichhea
p7200
aVantibotic
p7201
aVantibitics
p7202
aVlaparoscpry
p7203
aVmessag
p7204
aVlactu
p7205
aVmesuring
p7206
aVlaparscopy
p7207
aVlapars
p7208
aVanthony
p7209
aVniae
p7210
aVbisanai
p7211
aVantevertedin
p7212
aVprochono
p7213
aVpaysi
p7214
aVanterioraway
p7215
aVrepete
p7216
aVmetal
p7217
aVmeteti
p7218
aVantacids
p7219
aVphingo
p7220
aVanthropometric
p7221
aVanong
p7222
aVuporar
p7223
aVpeagnency
p7224
aVneyor
p7225
aVbillah
p7226
aVmefenamic
p7227
aVbilobed
p7228
aVmefipristone
p7229
aVbilta
p7230
aVbimir
p7231
aVvisuualize
p7232
aVmefomin
p7233
aVapproximatelly
p7234
aVmegmeshia
p7235
aVupozila
p7236
aVaptoto
p7237
aVappriciated
p7238
aVmegnashia
p7239
aVbings
p7240
aVlagre
p7241
aVmecing
p7242
aVmegneshia
p7243
aVbiha
p7244
aVmeh
p7245
aVrematic
p7246
aVmehder
p7247
aVnaynai
p7248
aVvirable
p7249
aVlagtacca
p7250
aVvitamain
p7251
aVmeaty
p7252
aVarkano
p7253
aVbilese
p7254
aVareas
p7255
aVbijte
p7256
aVarbo
p7257
aVbik
p7258
aVarbliding
p7259
aVmedicinegulu
p7260
aVarekdin
p7261
aVaremeader
p7262
aVviscosity
p7263
aVbikash
p7264
aVupra
p7265
aVrelieves
p7266
aVarkache
p7267
aVmedicinie
p7268
aVlaghbe
p7269
aVmediseen
p7270
aVreleas
p7271
aVvirjjo
p7272
aVprocjondo
p7273
aVnawya
p7274
aVark
p7275
aVprocnondo
p7276
aVuptrasono
p7277
aVlaggche
p7278
aVuptrito
p7279
aVbilbo
p7280
aVargatil
p7281
aVasalamoalikom
p7282
aVaponjon
p7283
aVneyoar
p7284
aVarsate
p7285
aVartical
p7286
aVvitorrr
p7287
aVbidding
p7288
aVuporkar
p7289
aVbirher
p7290
aVapnadir
p7291
aVmenans
p7292
aVapnaderk
p7293
aVarwaterpragnancy
p7294
aVmdrashedulislam
p7295
aVremu
p7296
aVmemorial
p7297
aVnavhi
p7298
aVapiu
p7299
aVpicai
p7300
aVmencs
p7301
aVuporivage
p7302
aVasacilo
p7303
aVngm
p7304
aVasajaoa
p7305
aVnave
p7306
aVmeneral
p7307
aVrelasnsip
p7308
aVbirjogulo
p7309
aVlagasa
p7310
aVasache
p7311
aVurbhor
p7312
aVneyesi
p7313
aVlagbey
p7314
aVlagtecilo
p7315
aVmelamasha
p7316
aVvitgold
p7317
aVbiovit
p7318
aVpunry
p7319
aVlagtey
p7320
aVapoinment
p7321
aVapogesu
p7322
aVbieta
p7323
aVphysiologocal
p7324
aVnavita
p7325
aVbidtarito
p7326
aVlagbei
p7327
aVmeasurement
p7328
aVapnemamat
p7329
aVpriyi
p7330
aVlahole
p7331
aVnayr
p7332
aVapnaraeto
p7333
aVlagbre
p7334
aVpboblem
p7335
aVarrekta
p7336
aVurineer
p7337
aVpua
p7338
aVpeage
p7339
aVmeanses
p7340
aVbiparietal
p7341
aVbacchati
p7342
aVashahoto
p7343
aVpurshudin
p7344
aVasolew
p7345
aVblackish
p7346
aVnaracar
p7347
aVuota
p7348
aVammr
p7349
aVrekecilam
p7350
aVaspash
p7351
aVbhando
p7352
aVblaiding
p7353
aVamkisukhon
p7354
aVresilt
p7355
aVamkgovt
p7356
aVnaracara
p7357
aVvoti
p7358
aVasq
p7359
aVamitoh
p7360
aVvoty
p7361
aVproyejon
p7362
aVminimal
p7363
aVpaycilam
p7364
aVunusaul
p7365
aVamik
p7366
aVprovelam
p7367
aVassalamoalaikom
p7368
aVassalamoalay
p7369
aVkuby
p7370
aVneasilam
p7371
aVassalamualaikm
p7372
aVlea
p7373
aVbl
p7374
aVpayeche
p7375
aVpussyir
p7376
aVbjla
p7377
aVasleto
p7378
aVprocholito
p7379
aVasmi
p7380
aVamnito
p7381
aVmiler
p7382
aVmileto
p7383
aVvorbe
p7384
aVamnitay
p7385
aVnicchiii
p7386
aVproyon
p7387
aVmasuma
p7388
aVkultece
p7389
aVmilimiter
p7390
aVmasum
p7391
aVvhabey
p7392
aVamniot
p7393
aVmilions
p7394
aVpilas
p7395
aVvhabea
p7396
aVutbea
p7397
aVvhabci
p7398
aVvhabchi
p7399
aVasoleo
p7400
aVbjteci
p7401
aVmildy
p7402
aVpopi
p7403
aVamerican
p7404
aVblesilo
p7405
aVneayr
p7406
aVnaora
p7407
aVasslamu
p7408
aVnaomi
p7409
aVassma
p7410
aVvrunkhoshta
p7411
aVvrunkosh
p7412
aVasss
p7413
aVpinch
p7414
aVutele
p7415
aVamarv
p7416
aVminths
p7417
aVnaoer
p7418
aVmirza
p7419
aVvsb
p7420
aVblliding
p7421
aVpawoya
p7422
aVputro
p7423
aVastaca
p7424
aVbllosom
p7425
aVprofessional
p7426
aVamale
p7427
aVnices
p7428
aVamakr
p7429
aVrestnite
p7430
aVmirto
p7431
aVvetory
p7432
aVlegechhe
p7433
aVblending
p7434
aVkuboi
p7435
aVvrcty
p7436
aVpayachilo
p7437
aVlectic
p7438
aVblecen
p7439
aVkubhi
p7440
aVkubey
p7441
aVproferti
p7442
aVpayace
p7443
aVvrius
p7444
aVassalmu
p7445
aVlegacies
p7446
aVambol
p7447
aVpodhuti
p7448
aVassamualaikum
p7449
aVnaowr
p7450
aVunsave
p7451
aVblenai
p7452
aVbhabchhi
p7453
aVassce
p7454
aVvrone
p7455
aVktomas
p7456
aVassea
p7457
aVmastars
p7458
aVneayer
p7459
aVlegeacea
p7460
aVbleedding
p7461
aVbishonno
p7462
aVproductivity
p7463
aVvhaloi
p7464
aVpiece
p7465
aVbisoyguli
p7466
aVashober
p7467
aVutaca
p7468
aVanechoic
p7469
aVupkeito
p7470
aVbisrame
p7471
aVnexum
p7472
aVashoea
p7473
aVandperiod
p7474
aVprochondro
p7475
aVrekhechi
p7476
aVvoite
p7477
aVasholea
p7478
aVvholoi
p7479
aVpriparation
p7480
aVashomoyer
p7481
aVashomy
p7482
aVvolaci
p7483
aVnarical
p7484
aVashonka
p7485
aVkustokhatino
p7486
aVancer
p7487
aVpurushar
p7488
aVanbe
p7489
aVvolbyn
p7490
aVandfl
p7491
aVmicrogedt
p7492
aVanembryonic
p7493
aVvhor
p7494
aVanomanly
p7495
aVviagina
p7496
aVashben
p7497
aVashcen
p7498
aVpuruchur
p7499
aVbhuk
p7500
aVlaster
p7501
aVbhujhte
p7502
aVashcilen
p7503
aVprithbir
p7504
aVmatritte
p7505
aVaniacide
p7506
aVlasts
p7507
aVashesa
p7508
aVashfaq
p7509
aVprtc
p7510
aVpictre
p7511
aVangolr
p7512
aVreported
p7513
aVnarta
p7514
aVnarmol
p7515
aVphenergan
p7516
aVvoios
p7517
aVpechate
p7518
aVupkirto
p7519
aVkuxxi
p7520
aVashese
p7521
aVneaor
p7522
aVnibondo
p7523
aVrekhea
p7524
aVvomec
p7525
aVprsentation
p7526
aVbivvino
p7527
aVvhebeci
p7528
aVasia
p7529
aVkunui
p7530
aVphatabo
p7531
aVupare
p7532
aVupakrito
p7533
aVupaketa
p7534
aVmigreen
p7535
aVbiyei
p7536
aVamrra
p7537
aVvhata
p7538
aVnewz
p7539
aVmateur
p7540
aVpushtir
p7541
aVpriood
p7542
aVprregnet
p7543
aVphasa
p7544
aVamothobasthy
p7545
aVvhangay
p7546
aVvhangar
p7547
aVamotabostai
p7548
aVreselt
p7549
aVnewyer
p7550
aVamraa
p7551
aVpaykhakanar
p7552
aVvolvo
p7553
aVashud
p7554
aVmicrogst
p7555
aVashosto
p7556
aVanamoly
p7557
aVneaci
p7558
aVashshe
p7559
aVanagad
p7560
aVkushum
p7561
aVanader
p7562
aVanachi
p7563
aVashtama
p7564
aVbitjo
p7565
aVbhitory
p7566
aVamrtol
p7567
aVamwer
p7568
aVashtase
p7569
aVvhitory
p7570
aVmidecine
p7571
aVpolycrol
p7572
aVamthr
p7573
aVvolum
p7574
aVrekhasi
p7575
aVbitote
p7576
aVmidline
p7577
aVkurbani
p7578
aVmier
p7579
aVashubidha
p7580
aVvoltaline
p7581
aVkowya
p7582
aVweeka
p7583
aVyougort
p7584
aVadeduate
p7585
aVbonben
p7586
aVadea
p7587
aVkotahai
p7588
aVnihsahshe
p7589
aVmaghe
p7590
aVpatbo
p7591
aVniiii
p7592
aVperipheral
p7593
aVrobart
p7594
aVprosarber
p7595
aVbondhi
p7596
aVporamorshre
p7597
aVmag
p7598
aVrawshon
p7599
aVyogurt
p7600
aVvabaei
p7601
aVmae
p7602
aVpepsi
p7603
aVkostokatinno
p7604
aVmadr
p7605
aVmrdicine
p7606
aVudha
p7607
aVbonagi
p7608
aVneschet
p7609
aVmowsumi
p7610
aVpeob
p7611
aVraza
p7612
aVrays
p7613
aVbalasa
p7614
aVkotbar
p7615
aVbalasen
p7616
aVnemo
p7617
aVbaleche
p7618
aVbomdu
p7619
aVneobeen
p7620
aVroa
p7621
aVudhla
p7622
aVadhir
p7623
aVplesae
p7624
aVyhaka
p7625
aVadeo
p7626
aVbalis
p7627
aVudhao
p7628
aVadenomyosos
p7629
aVpatd
p7630
aVbonaa
p7631
aVmahespur
p7632
aVbalsa
p7633
aVmadm
p7634
aVvabasilam
p7635
aVlodacoda
p7636
aVnijadr
p7637
aVacropic
p7638
aVbatse
p7639
aVbatsar
p7640
aVbandubi
p7641
aVnadia
p7642
aVacktu
p7643
aVyusufgul
p7644
aVyutha
p7645
aVmths
p7646
aVkoshtho
p7647
aVlogkon
p7648
aVnachbo
p7649
aVperioda
p7650
aVkosher
p7651
aVyyyy
p7652
aVkoshe
p7653
aVnach
p7654
aVmuchi
p7655
aVaciditi
p7656
aVacider
p7657
aVnacher
p7658
aVyeaes
p7659
aVacthe
p7660
aVkosri
p7661
aVllokkon
p7662
aVlng
p7663
aVpatanur
p7664
aVbamdike
p7665
aVbampasta
p7666
aVmadicic
p7667
aVbavhe
p7668
aVniiiii
p7669
aVperiodr
p7670
aVlocalization
p7671
aVloda
p7672
aVmsh
p7673
aVrochir
p7674
aVperiodod
p7675
aVpeptil
p7676
aVperiodm
p7677
aVmadhommy
p7678
aVbandhane
p7679
aVmadhoma
p7680
aVyrine
p7681
aVporamorsso
p7682
aVmtha
p7683
aVmssik
p7684
aVzacce
p7685
aVadol
p7686
aVbolve
p7687
aVmajhite
p7688
aVagaeo
p7689
aVproshmo
p7690
aVprobleo
p7691
aVmajhay
p7692
aVagaami
p7693
aVbolsei
p7694
aVxl
p7695
aVrajur
p7696
aVafza
p7697
aVmotodr
p7698
aVbolsii
p7699
aVafsus
p7700
aVuju
p7701
aVxperience
p7702
aVbeating
p7703
aVproshash
p7704
aVbairee
p7705
aVbeathe
p7706
aVnem
p7707
aVutttor
p7708
aVagahat
p7709
aVagaia
p7710
aVpermition
p7711
aVmotlove
p7712
aVageer
p7713
aVkotobaer
p7714
aVmothera
p7715
aVvanghar
p7716
aVrajhte
p7717
aVmajkana
p7718
aVnejy
p7719
aVmothoi
p7720
aVageao
p7721
aVageai
p7722
aVvanganor
p7723
aVbolose
p7724
aVkotk
p7725
aVpleaese
p7726
aVbebey
p7727
aVbahirar
p7728
aVrcport
p7729
aVpathalum
p7730
aVbebay
p7731
aVpentabex
p7732
aVukore
p7733
aVbahiray
p7734
aVrdin
p7735
aVaffirmative
p7736
aVkothoi
p7737
aVnagetve
p7738
aVaekhon
p7739
aVbdte
p7740
aVaegust
p7741
aVnessad
p7742
aVbdrsh
p7743
aVpleaseeeee
p7744
aVpathaben
p7745
aVmouths
p7746
aVadvici
p7747
aVrakhachi
p7748
aVboltesa
p7749
aVliqu
p7750
aVmails
p7751
aVmaik
p7752
aVmovements
p7753
aVliquidation
p7754
aVbccha
p7755
aVmaider
p7756
aVadore
p7757
aVmowcha
p7758
aVbcca
p7759
aVkotci
p7760
aVrakhay
p7761
aVpleeeeeeeeesss
p7762
aVugolo
p7763
aVboltem
p7764
aVbairwa
p7765
aVbaitha
p7766
aVkothir
p7767
aVboltapara
p7768
aVniger
p7769
aVpentobex
p7770
aVpathailam
p7771
aVxry
p7772
aVpermenent
p7773
aVmouchak
p7774
aVaektu
p7775
aVrakei
p7776
aVbajara
p7777
aVvang
p7778
aVprojukti
p7779
aVnemeche
p7780
aVprosharon
p7781
aVboltecha
p7782
aVaeshese
p7783
aVmaintained
p7784
aVuhh
p7785
aVaemon
p7786
aVmajahy
p7787
aVwwek
p7788
aVmucospel
p7789
aVratly
p7790
aVtwine
p7791
aVzithox
p7792
aVpluskino
p7793
aVbasona
p7794
aVbarli
p7795
aVvagetable
p7796
aVabdomene
p7797
aVprgnen
p7798
aVabdomain
p7799
aVkorseb
p7800
aVlondon
p7801
aVbasir
p7802
aVtwinc
p7803
aVbasikon
p7804
aVrastao
p7805
aVabbar
p7806
aVlongitudinal
p7807
aVbososh
p7808
aVlonkkon
p7809
aVrastah
p7810
aVzofra
p7811
aVbarla
p7812
aVboshteo
p7813
aVneotec
p7814
aVvagge
p7815
aVaboar
p7816
aVrojate
p7817
aVbarecha
p7818
aVlombivabe
p7819
aVbosey
p7820
aVkortachi
p7821
aVrojer
p7822
aVlupijest
p7823
aVkortac
p7824
aVlumti
p7825
aVzofrodty
p7826
aVroker
p7827
aVmuriye
p7828
aVperbe
p7829
aVboshla
p7830
aVmururte
p7831
aVperben
p7832
aVpromorso
p7833
aVperesen
p7834
aVkorslilam
p7835
aVbarithe
p7836
aVpojno
p7837
aVbarhoae
p7838
aVzokon
p7839
aVbosshor
p7840
aVtvc
p7841
aVbotchor
p7842
aVmwja
p7843
aVplzplz
p7844
aVrashel
p7845
aVbarye
p7846
aVaakhi
p7847
aVzowno
p7848
aVaahche
p7849
aVboto
p7850
aVrapture
p7851
aVplzi
p7852
aVloukhon
p7853
aVbotshor
p7854
aVnike
p7855
aVmyelin
p7856
aVaaddmit
p7857
aVperecen
p7858
aVmylovit
p7859
aVaabe
p7860
aVmyoma
p7861
aVzycin
p7862
aVboudir
p7863
aVaagami
p7864
aVpasschena
p7865
aVneour
p7866
aVaamh
p7867
aVprgnc
p7868
aVloos
p7869
aVababa
p7870
aVaat
p7871
aVtutu
p7872
aVaask
p7873
aVkorop
p7874
aVloreta
p7875
aVprokr
p7876
aVloretta
p7877
aVvabty
p7878
aVvagainate
p7879
aVprolife
p7880
aVaapni
p7881
aVaapnar
p7882
aVlub
p7883
aVkoronioo
p7884
aVbosurer
p7885
aVaanaros
p7886
aVvabtesi
p7887
aVltr
p7888
aVmuvment
p7889
aVprgnat
p7890
aVneoiar
p7891
aVbardem
p7892
aVbarchi
p7893
aVprorile
p7894
aVacctually
p7895
aVpastatei
p7896
aVbanyr
p7897
aVuchcota
p7898
aVzedin
p7899
aVkortysi
p7900
aVaccidente
p7901
aVrogeo
p7902
aVzeefal
p7903
aVlokhben
p7904
aVbapareo
p7905
aVmabelon
p7906
aVkortsa
p7907
aVborodoroner
p7908
aVrakt
p7909
aVacchar
p7910
aVraktasi
p7911
aVperical
p7912
aVaccess
p7913
aVkortrci
p7914
aVmachinetar
p7915
aVbathrome
p7916
aVmacing
p7917
aVbathrooma
p7918
aVrodok
p7919
aVnabothian
p7920
aVuchti
p7921
aVmaddomai
p7922
aVbatito
p7923
aVrakkta
p7924
aVzaf
p7925
aVplls
p7926
aVachii
p7927
aVzanan
p7928
aVacceptable
p7929
aVbordok
p7930
aVnerve
p7931
aVpllzz
p7932
aVrakleo
p7933
aVprosaab
p7934
aVmaddhom
p7935
aVmadame
p7936
aVbathroome
p7937
aVmukay
p7938
aVbathroomar
p7939
aVaceki
p7940
aVacheto
p7941
aVlokhono
p7942
aVboroncho
p7943
aVnijenije
p7944
aVuar
p7945
aVabosthy
p7946
aVzifci
p7947
aVmultivitaminsuggest
p7948
aVuapai
p7949
aVkortecilam
p7950
aVrohmot
p7951
aVvaira
p7952
aVualtasonu
p7953
aVabortio
p7954
aVabostion
p7955
aVualtasogum
p7956
aVzifolate
p7957
aVrasty
p7958
aVbatao
p7959
aVbarbara
p7960
aVvabike
p7961
aVzinat
p7962
aVneple
p7963
aVbarcenah
p7964
aVneoq
p7965
aVboschena
p7966
aVaborted
p7967
aVaboddho
p7968
aVbortumane
p7969
aVpronex
p7970
aVprgnenci
p7971
aVplop
p7972
aVvabetio
p7973
aVacai
p7974
aVabulation
p7975
aVabuation
p7976
aVabsolutely
p7977
aVrakun
p7978
aVrasulte
p7979
aVnaar
p7980
aVmultivitamine
p7981
aVborough
p7982
aVabrsone
p7983
aVprooti
p7984
aVlokkono
p7985
aVrogto
p7986
aVabroshon
p7987
aVubi
p7988
aVmaah
p7989
aVabousn
p7990
aVabourtion
p7991
aVmaach
p7992
aVramar
p7993
aVageeyw
p7994
aVmedicinegula
p7995
aVporamofsho
p7996
aVbagerhat
p7997
aVmakes
p7998
aVbollce
p7999
aVultasonu
p8000
aVprobabily
p8001
aVritodrine
p8002
aVahste
p8003
aVbachch
p8004
aVahsole
p8005
aVkotokal
p8006
aVahbong
p8007
aVullqkkho
p8008
aVboleiln
p8009
aVagolote
p8010
aVahcca
p8011
aVmordha
p8012
aVprosnr
p8013
aVbedas
p8014
aVpriea
p8015
aVkototomo
p8016
aVbolechiln
p8017
aVmortile
p8018
aVwiping
p8019
aVpoida
p8020
aVmotay
p8021
aVulltra
p8022
aVkotodinr
p8023
aVullra
p8024
aVulive
p8025
aVbolleichinba
p8026
aVbolecchen
p8027
aVageyr
p8028
aVproshsbe
p8029
aVpobbility
p8030
aVbadi
p8031
aVkotogullo
p8032
aVvareni
p8033
aVbeet
p8034
aVagost
p8035
aVkouti
p8036
aVmamae
p8037
aVbachchati
p8038
aVmaly
p8039
aVprobable
p8040
aVkouno
p8041
aVmorever
p8042
aVbedohar
p8043
aVprosoav
p8044
aVriporte
p8045
aVbolechichilo
p8046
aVultrasanographyr
p8047
aVmajority
p8048
aVnejak
p8049
aVbolechy
p8050
aVporamoeshe
p8051
aVbedi
p8052
aVbachhe
p8053
aVaghei
p8054
aVpointed
p8055
aVaghy
p8056
aVahsea
p8057
aVbedona
p8058
aVplea
p8059
aVaggo
p8060
aVriprort
p8061
aVpatheasilam
p8062
aVagk
p8063
aVahscilo
p8064
aVahscea
p8065
aVultrasiund
p8066
aVbachelor
p8067
aVbebotha
p8068
aVkototulu
p8069
aVnetey
p8070
aVbolecio
p8071
aVkotsilam
p8072
aVbadyr
p8073
aVnetha
p8074
aVkottha
p8075
aVahsc
p8076
aVahsbe
p8077
aVwshod
p8078
aVultrasnography
p8079
aVultrason
p8080
aVwipes
p8081
aVagrohe
p8082
aVmoslar
p8083
aVmoshon
p8084
aVlimbo
p8085
aVbaggo
p8086
aVkotomas
p8087
aVultasonograpy
p8088
aVbolcsen
p8089
aVkotoden
p8090
aVbadhi
p8091
aVplazma
p8092
aVbollm
p8093
aVrachtai
p8094
aVringguard
p8095
aVreaetive
p8096
aVultrasnow
p8097
aVbadhok
p8098
aVmosh
p8099
aVwsod
p8100
aVpescribe
p8101
aVbollleiii
p8102
aVwipe
p8103
aVbagerhate
p8104
aVproshr
p8105
aVboles
p8106
aVkotomash
p8107
aVbegom
p8108
aVrahmote
p8109
aVagerly
p8110
aVwiyefer
p8111
aVprojonta
p8112
aVbolesey
p8113
aVbeci
p8114
aVbolesan
p8115
aVmoshe
p8116
aVultason
p8117
aVagertar
p8118
aVracha
p8119
aVboleser
p8120
aVaguluer
p8121
aVwiyeffer
p8122
aVbefor
p8123
aVbecikhon
p8124
aVwsud
p8125
aVbachadr
p8126
aVmosquito
p8127
aVproshnotir
p8128
aVageg
p8129
aVkotomaser
p8130
aVniga
p8131
aVgurate
p8132
aVkerime
p8133
aVrogtir
p8134
aVektopik
p8135
aVhoiagese
p8136
aVoppekkai
p8137
aVeftar
p8138
aVnahida
p8139
aVeftare
p8140
aVdaok
p8141
aVshayta
p8142
aVadmix
p8143
aVchulkata
p8144
aVkoyekfota
p8145
aVvarginia
p8146
aVkheyefele
p8147
aVsuar
p8148
aVoshonkko
p8149
aVbujiyesen
p8150
aVashchay
p8151
aVbathjorer
p8152
aVniayci
p8153
aVkronta
p8154
aVeifar
p8155
aVmobaile
p8156
aVbhulnoshoto
p8157
aVanniversary
p8158
aVazimpure
p8159
aVlokma
p8160
aVoterkto
p8161
aVliquria
p8162
aVmassag
p8163
aVshakal
p8164
aVassalamolaikom
p8165
aVtuktak
p8166
aVlacce
p8167
aVphakhana
p8168
aVpichle
p8169
aVlol
p8170
aVdowrola
p8171
aVhoheche
p8172
aVkancer
p8173
aVgoraito
p8174
aVkuboy
p8175
aVbosarer
p8176
aVsoyom
p8177
aVbishasoggo
p8178
aVtaxt
p8179
aVbiaa
p8180
aVansewr
p8181
aVconcv
p8182
aVorochi
p8183
aVkortesii
p8184
aVdhhonobad
p8185
aVancilam
p8186
aVhoeacay
p8187
aVsena
p8188
aVhoccr
p8189
aVmrinal
p8190
aVdiagnose
p8191
aVsaki
p8192
aVossottikor
p8193
aVgursa
p8194
aVaivane
p8195
aVsatez
p8196
aVaivbe
p8197
aVdekaic
p8198
aVonopate
p8199
aVsakkater
p8200
aVpresciptione
p8201
aVdakhanwte
p8202
aVprehnencyr
p8203
aVprei
p8204
aViston
p8205
aVkim
p8206
aVbokra
p8207
aVgurayna
p8208
aVdeslonto
p8209
aVchentay
p8210
aVmapae
p8211
aVcorbir
p8212
aVossostite
p8213
aVkartea
p8214
aVsomadanta
p8215
aVornaki
p8216
aVbood
p8217
aVchayh
p8218
aVculkaice
p8219
aVlikhece
p8220
aVbishrsh
p8221
aVayita
p8222
aVtrans
p8223
aVpaps
p8224
aVfelins
p8225
aVdoos
p8226
aVgull
p8227
aVbujcina
p8228
aValtrasnwgrm
p8229
aVdurbalatao
p8230
aVutechilo
p8231
aVcheyesi
p8232
aVcheest
p8233
aVbatrom
p8234
aVdekalo
p8235
aVsolusion
p8236
aVdakhaile
p8237
aVhospitaleo
p8238
aVmiar
p8239
aValtrasonwgrm
p8240
aVastun
p8241
aVhysteria
p8242
aVgectik
p8243
aVdaet
p8244
aVpaene
p8245
aVuttse
p8246
aVcokta
p8247
aVretusrab
p8248
aVkheda
p8249
aVkatu
p8250
aVbesoj
p8251
aVtarporeu
p8252
aVmeje
p8253
aVdance
p8254
aVhoynu
p8255
aVphotha
p8256
aVcidrra
p8257
aVunire
p8258
aVabetha
p8259
aVmazamazi
p8260
aVjegas
p8261
aVparn
p8262
aVlsovent
p8263
aVcoila
p8264
aVjaoua
p8265
aVhbp
p8266
aVkhachar
p8267
aVcicuation
p8268
aVtransverse
p8269
aVporuk
p8270
aVthna
p8271
aVnormanal
p8272
aVcillaitece
p8273
aVrkhon
p8274
aVjdini
p8275
aVntv
p8276
aVbasbo
p8277
aVsthayebabe
p8278
aVjonanghe
p8279
aVsarrir
p8280
aVvithtor
p8281
aVsaghulo
p8282
aVbeskon
p8283
aVcapsol
p8284
aVhiyar
p8285
aVbobo
p8286
aVusb
p8287
aVgotolal
p8288
aVjontron
p8289
aVjathio
p8290
aVsikal
p8291
aVgothone
p8292
aVdkht
p8293
aVtumuer
p8294
aVvurer
p8295
aVhooar
p8296
aVjontronata
p8297
aVpcoc
p8298
aVsadarap
p8299
aVkhethe
p8300
aVfungicort
p8301
aVbrack
p8302
aVdlei
p8303
aVprgncyr
p8304
aVcalvimax
p8305
aVmilata
p8306
aVachomka
p8307
aVneine
p8308
aVterminated
p8309
aVchnges
p8310
aVtadatadi
p8311
aVoradexson
p8312
aVsathyi
p8313
aVarmpit
p8314
aVjaouar
p8315
aVantifungal
p8316
aVfeali
p8317
aVtikno
p8318
aVkorechil
p8319
aVbsccha
p8320
aVaashar
p8321
aVkheato
p8322
aVkhicu
p8323
aVkasea
p8324
aVbiovic
p8325
aVuchite
p8326
aVprgnnant
p8327
aVparmacy
p8328
aVcontroversy
p8329
aVfeatures
p8330
aVfatility
p8331
aVaroflo
p8332
aVjaxche
p8333
aVjoti
p8334
aVjowar
p8335
aVachea
p8336
aVghosea
p8337
aVporthuke
p8338
aVfayes
p8339
aVshavanik
p8340
aVhairs
p8341
aVchocolates
p8342
aVfca
p8343
aVsmeel
p8344
aVobsatai
p8345
aVnawabgonj
p8346
aVclilo
p8347
aVsunese
p8348
aVobese
p8349
aVosudhgulo
p8350
aVdhuyea
p8351
aVfenaton
p8352
aVpathia
p8353
aVarhoyni
p8354
aVargolin
p8355
aVjauga
p8356
aVpricnency
p8357
aVblb
p8358
aVjjay
p8359
aVsomoyere
p8360
aVjatai
p8361
aVaramva
p8362
aVkhelse
p8363
aVgynocologst
p8364
aVvoyta
p8365
aVlaglai
p8366
aVmedicinegulo
p8367
aVsomvhobo
p8368
aVlihata
p8369
aVblchi
p8370
aVmedechine
p8371
aVrekeche
p8372
aVags
p8373
aVrockto
p8374
aVgynocide
p8375
aVunwabted
p8376
aVgiyacholo
p8377
aVhhowar
p8378
aVpediod
p8379
aVuorin
p8380
aVzoxan
p8381
aVkhaoia
p8382
aVkhaour
p8383
aVpharmer
p8384
aVasober
p8385
aVhabena
p8386
aVistrit
p8387
aVsicilo
p8388
aVresidual
p8389
aVhouresr
p8390
aVchitesi
p8391
aVbadena
p8392
aVkashhi
p8393
aVkalcha
p8394
aVkicchukhon
p8395
aVtsrikh
p8396
aVkicdin
p8397
aVaslena
p8398
aVdekhq
p8399
aVmilitia
p8400
aVnorthisteron
p8401
aVchintitoo
p8402
aVpretek
p8403
aVstrick
p8404
aVporoborteta
p8405
aVsareni
p8406
aVporipokko
p8407
aVhoeyasilo
p8408
aVinverted
p8409
aVhoeyasa
p8410
aVoshosthi
p8411
aViod
p8412
aVhoesekina
p8413
aVwords
p8414
aVneower
p8415
aVaashoshto
p8416
aVniza
p8417
aVmelmesha
p8418
aVjekhany
p8419
aVcalculus
p8420
aVpaniya
p8421
aVhobab
p8422
aVechopattern
p8423
aVnostoy
p8424
aVconcievebkorte
p8425
aVprode
p8426
aVdyea
p8427
aVthyrolar
p8428
aVcalcutr
p8429
aVcomersial
p8430
aVjototuk
p8431
aVconcve
p8432
aVeriod
p8433
aVdiam
p8434
aVsompory
p8435
aVdekhaly
p8436
aVedanibg
p8437
aVbabystart
p8438
aVsaothik
p8439
aVthic
p8440
aVtareky
p8441
aVhayasa
p8442
aVmddha
p8443
aVdury
p8444
aVabre
p8445
aVluci
p8446
aVexperienced
p8447
aVchorea
p8448
aVhicchi
p8449
aVpecha
p8450
aVbolecile
p8451
aVettoi
p8452
aVeasyli
p8453
aVebari
p8454
aVasecha
p8455
aVthelty
p8456
aVhaththe
p8457
aVoborshoie
p8458
aVhatbo
p8459
aVhoarr
p8460
aVdarmoid
p8461
aVrontrill
p8462
aVlafani
p8463
aVpscchina
p8464
aVeaivar
p8465
aVonugaye
p8466
aVaboso
p8467
aVghurchi
p8468
aVebng
p8469
aVaborion
p8470
aVconccp
p8471
aVnostohoy
p8472
aVmanikgonjer
p8473
aVbirotikoroner
p8474
aVtakakaklin
p8475
aVpocces
p8476
aVobolambon
p8477
aVsanse
p8478
aVbekkha
p8479
aVerregular
p8480
aVpergnant
p8481
aVahhon
p8482
aVneorer
p8483
aVjaction
p8484
aVchorbir
p8485
aVvaire
p8486
aVabastai
p8487
aVtarke
p8488
aVkhoewer
p8489
aVhotou
p8490
aVnabitay
p8491
aVconsole
p8492
aVcolorer
p8493
aVdicilm
p8494
aVobistay
p8495
aVparona
p8496
aVdeksilam
p8497
aVasaalamualaikum
p8498
aVbaroi
p8499
aVjaanii
p8500
aVmencitation
p8501
aVcchila
p8502
aVmupirocin
p8503
aVtikagola
p8504
aVvhittite
p8505
aVpechie
p8506
aVemukon
p8507
aVfaner
p8508
aVpregnencite
p8509
aVapnakr
p8510
aVnilau
p8511
aVninay
p8512
aVspreed
p8513
aVploblemer
p8514
aVbashey
p8515
aVbei
p8516
aVnizai
p8517
aVendrometrosis
p8518
aVconsevrl
p8519
aVhbu
p8520
aVglymin
p8521
aVkoriyec
p8522
aVsobcheya
p8523
aVlokkno
p8524
aVhllo
p8525
aVvoid
p8526
aVparlai
p8527
aVahenai
p8528
aVpordekhlo
p8529
aVkototukku
p8530
aVorgatill
p8531
aVpurbea
p8532
aVbolechan
p8533
aVratae
p8534
aVlona
p8535
aVubiq
p8536
aVasalamoalikum
p8537
aVmhz
p8538
aVmalay
p8539
aVsreb
p8540
aVduray
p8541
aVcholtc
p8542
aVhoccepls
p8543
aVnayour
p8544
aVsidei
p8545
aVplpo
p8546
aVuporea
p8547
aVniyce
p8548
aVporimaneo
p8549
aVcholtesilo
p8550
aVahca
p8551
aVjanieya
p8552
aVneaur
p8553
aVwindow
p8554
aVhoychay
p8555
aVsomvobo
p8556
aVghaai
p8557
aVpoddhothi
p8558
aVoposhoron
p8559
aVsayok
p8560
aVnewao
p8561
aVjonitea
p8562
aVdhali
p8563
aVjoriai
p8564
aVakaney
p8565
aVshamonno
p8566
aVdhukayna
p8567
aVgurato
p8568
aVkhaithe
p8569
aVtokohn
p8570
aVsirate
p8571
aVkindli
p8572
aVthaktay
p8573
aVvalolagsena
p8574
aVbloder
p8575
aVdorjoshil
p8576
aVdolar
p8577
aVominix
p8578
aVdorjoh
p8579
aVbethatar
p8580
aVkilmax
p8581
aVhowaty
p8582
aVhoisey
p8583
aVsotorkota
p8584
aVvalohoy
p8585
aVshonibar
p8586
aVhomonal
p8587
aVdorvhol
p8588
aVmissperiod
p8589
aVakohn
p8590
aVotesi
p8591
aVbeyate
p8592
aVkonodn
p8593
aVsiner
p8594
aVakajon
p8595
aVpiriborton
p8596
aVporisthitir
p8597
aVchestai
p8598
aVsomey
p8599
aVfuroclav
p8600
aVhoichebut
p8601
aVopakhai
p8602
aVunbelievable
p8603
aVvbclm
p8604
aVguriye
p8605
aVnormam
p8606
aVdlen
p8607
aVsonograph
p8608
aVfmilyr
p8609
aVbamkat
p8610
aVkatche
p8611
aVbolsey
p8612
aVakdag
p8613
aVtransparent
p8614
aVkkan
p8615
aVsosce
p8616
aVmahfuza
p8617
aVkachra
p8618
aVnonths
p8619
aVgaisilo
p8620
aValtrasonographite
p8621
aVkromosh
p8622
aVhoko
p8623
aVovaritay
p8624
aVkhaccilm
p8625
aVpregnanny
p8626
aVresul
p8627
aVpeosno
p8628
aVdonnobhad
p8629
aVonneke
p8630
aVhojce
p8631
aVboltao
p8632
aVteu
p8633
aVhoigece
p8634
aVaxetil
p8635
aVsoptahr
p8636
aVsector
p8637
aVgorbhodaroner
p8638
aVmiscurrage
p8639
aVkkorechi
p8640
aVmasea
p8641
aVdorilam
p8642
aVdkbo
p8643
aVtransducer
p8644
aVsosurbarite
p8645
aVvea
p8646
aVchaynaaa
p8647
aVtoirite
p8648
aVvejha
p8649
aVnaggativ
p8650
aVbloo
p8651
aVprotidini
p8652
aVjontorer
p8653
aVutero
p8654
aVbesoita
p8655
aVsopthaho
p8656
aVgorbodharon
p8657
aVcycles
p8658
aVtrego
p8659
aVkathamo
p8660
aVkrlilam
p8661
aVmashs
p8662
aVjohura
p8663
aVcabergoline
p8664
aVnomopil
p8665
aVonusrea
p8666
aVmaserr
p8667
aVpody
p8668
aVprochndo
p8669
aVshorri
p8670
aVpegrant
p8671
aVpiwdar
p8672
aVlerozole
p8673
aVoinomito
p8674
aValigin
p8675
aVoono
p8676
aVperiodes
p8677
aVdotoi
p8678
aVkossa
p8679
aVshartecena
p8680
aVtex
p8681
aVgecge
p8682
aVdiua
p8683
aVkotokkho
p8684
aVgechen
p8685
aVfifth
p8686
aVdouglus
p8687
aVgorvobti
p8688
aVprovair
p8689
aVassalekum
p8690
aVhohese
p8691
aVgeasilam
p8692
aVlockhon
p8693
aVdeachilo
p8694
aVprothon
p8695
aVsweeling
p8696
aVneobion
p8697
aVchaichen
p8698
aVpyta
p8699
aVdakay
p8700
aVcharpaser
p8701
aVporsen
p8702
aValkaf
p8703
aVibnesina
p8704
aVsavibik
p8705
aVnowshin
p8706
aVgclo
p8707
aVkohkon
p8708
aVneina
p8709
aVuthor
p8710
aVvevahito
p8711
aVpoeiod
p8712
aVjormoniyonton
p8713
aVrhamatea
p8714
aVsottey
p8715
aVkacbe
p8716
aVgorvho
p8717
aVsyta
p8718
aVmashaer
p8719
aVnightiv
p8720
aVxhlo
p8721
aVassalamualaikumn
p8722
aVporchito
p8723
aVbujechilam
p8724
aVprothomea
p8725
aVressult
p8726
aVgeyachea
p8727
aVayba
p8728
aVkicucin
p8729
aVpargnant
p8730
aVlgclo
p8731
aVazmasole
p8732
aVsongket
p8733
aVoia
p8734
aVsahaje
p8735
aVpesta
p8736
aVlebar
p8737
aVpargnacer
p8738
aVrekhechilo
p8739
aVemonti
p8740
aVkoreenni
p8741
aVdeklen
p8742
aVjeera
p8743
aVshomo
p8744
aVerk
p8745
aVgonagon
p8746
aVkhoroh
p8747
aVamnota
p8748
aVkhaaoa
p8749
aVarise
p8750
aVorpblem
p8751
aVghorome
p8752
aVperasitmol
p8753
aVneorologist
p8754
aVktokhn
p8755
aVfrequectly
p8756
aVbhorta
p8757
aVpobashi
p8758
aVstemetil
p8759
aVontosottar
p8760
aVthelai
p8761
aVbeboreto
p8762
aVcusa
p8763
aVdakao
p8764
aVkannao
p8765
aVcompletly
p8766
aVjommo
p8767
aVkhawia
p8768
aVphlebe
p8769
aVefact
p8770
aVkedecchilo
p8771
aVsustto
p8772
aVebepare
p8773
aVoupodan
p8774
aVuttijona
p8775
aVjellyr
p8776
aVmayedaro
p8777
aVcolthee
p8778
aVcurture
p8779
aVuttajonar
p8780
aVberkori
p8781
aVdhokchei
p8782
aVporushogga
p8783
aVcyclogical
p8784
aVjeely
p8785
aVdogi
p8786
aVdhokay
p8787
aVjellyta
p8788
aVdiasilen
p8789
aVbdyr
p8790
aVbiboto
p8791
aVvas
p8792
aVddine
p8793
aVcusi
p8794
aVsemabod
p8795
aVcushi
p8796
aVechsei
p8797
aVbajjik
p8798
aVbicanar
p8799
aVuthecilo
p8800
aVvijanor
p8801
aVmazea
p8802
aVlupkiss
p8803
aVbajary
p8804
aVsase
p8805
aVkanto
p8806
aVcusesi
p8807
aVdoctorwr
p8808
aVdhomoni
p8809
aVdhoker
p8810
aVluma
p8811
aVatkie
p8812
aVpajamar
p8813
aVcustea
p8814
aVosompurno
p8815
aVecchah
p8816
aVviginity
p8817
aVeccai
p8818
aVdhokyi
p8819
aVdhukabo
p8820
aVcommerce
p8821
aVtatpor
p8822
aVechhate
p8823
aVvigra
p8824
aVbesu
p8825
aVdhukabe
p8826
aVvabohar
p8827
aVmayka
p8828
aVsussuri
p8829
aVbariyeci
p8830
aVbastob
p8831
aVdekhani
p8832
aVshalbagan
p8833
aVdisloyal
p8834
aVpaiupotha
p8835
aVdawi
p8836
aVjonai
p8837
aVdhoon
p8838
aVdhopore
p8839
aVprochub
p8840
aVtathe
p8841
aVbeapar
p8842
aVjehey
p8843
aVjeirokom
p8844
aVedegre
p8845
aVpree
p8846
aVosohntusto
p8847
aVlesbien
p8848
aVdoctoerer
p8849
aVdieactive
p8850
aVbebreto
p8851
aVsesx
p8852
aVphona
p8853
aVkarlao
p8854
aVlukia
p8855
aVmayeti
p8856
aVlukanur
p8857
aVberja
p8858
aVlukai
p8859
aVdawyer
p8860
aVnetie
p8861
aVjehtu
p8862
aVdrai
p8863
aVutheii
p8864
aVporjontou
p8865
aVdapotin
p8866
aVdhormiyo
p8867
aVbartho
p8868
aVpelamnato
p8869
aVmarre
p8870
aVsublet
p8871
aVkarant
p8872
aVcodde
p8873
aVcodacodi
p8874
aVcoda
p8875
aVvirginia
p8876
aVjonny
p8877
aVjownanago
p8878
aVtarto
p8879
aVvirginiaty
p8880
aVoutput
p8881
aVthkale
p8882
aVsycle
p8883
aVdekhtece
p8884
aVsubol
p8885
aVshikhan
p8886
aVejeculation
p8887
aVejnoy
p8888
aVejonne
p8889
aVthitay
p8890
aVpaena
p8891
aVrelaxation
p8892
aVphotom
p8893
aVkawaice
p8894
aVbeshekkhon
p8895
aVmechi
p8896
aVthitio
p8897
aVvagainar
p8898
aVdiceeee
p8899
aVothoch
p8900
aVdicee
p8901
aVbigyan
p8902
aVov
p8903
aVrasmi
p8904
aVbebhar
p8905
aVmedechin
p8906
aVtartare
p8907
aVshamik
p8908
aVlagleoo
p8909
aVjonnaggo
p8910
aVtarta
p8911
aVekee
p8912
aVshimer
p8913
aVtarsatey
p8914
aVthaea
p8915
aVkarae
p8916
aVbegon
p8917
aVlgclilo
p8918
aVupsate
p8919
aVshamisohobas
p8920
aVarekbr
p8921
aVsecendr
p8922
aVdaraleo
p8923
aVswmi
p8924
aVseledr
p8925
aVouta
p8926
aVlgchy
p8927
aVscnd
p8928
aVlingote
p8929
aVrdttime
p8930
aVberzo
p8931
aVliktaceeee
p8932
aVkebaabea
p8933
aVavabee
p8934
aVmanaki
p8935
aVejakulation
p8936
aVkaram
p8937
aVtarporobolen
p8938
aVovvulation
p8939
aVbijjro
p8940
aVothoma
p8941
aVbaher
p8942
aVthahe
p8943
aVkebe
p8944
aVtailey
p8945
aVmarley
p8946
aVejacultion
p8947
aVswapno
p8948
aVrelaton
p8949
aVjounopothe
p8950
aVbaronor
p8951
aVbeshoi
p8952
aVattracted
p8953
aVdekla
p8954
aVotumatik
p8955
aVjonii
p8956
aVmalone
p8957
aVscripture
p8958
aVvegin
p8959
aVtalks
p8960
aVdekl
p8961
aVdekkha
p8962
aVbidduter
p8963
aVbashir
p8964
aVbeshikkhnon
p8965
aVjounotay
p8966
aVbejju
p8967
aVurmi
p8968
aVmeaka
p8969
aVjonu
p8970
aVkarjokaritha
p8971
aVasakory
p8972
aVasakore
p8973
aVscyst
p8974
aVvejai
p8975
aVkcukkn
p8976
aVbesikkhn
p8977
aVviktita
p8978
aVniyop
p8979
aVjouner
p8980
aVmaney
p8981
aVbeerjo
p8982
aVvegy
p8983
aVsefti
p8984
aVjonete
p8985
aVbagdotta
p8986
aVthakati
p8987
aVkacho
p8988
aVkaoice
p8989
aVjounanngo
p8990
aVlubrikant
p8991
aVrak
p8992
aVpenies
p8993
aVlubricantiing
p8994
aVdaour
p8995
aVurdhe
p8996
aVporobortity
p8997
aVtarmoto
p8998
aVvargina
p8999
aVmarrge
p9000
aVlubrecand
p9001
aVmarreide
p9002
aVmeati
p9003
aVlube
p9004
aVbigapon
p9005
aVothoccho
p9006
aVlgleo
p9007
aVupya
p9008
aVejaculated
p9009
aVeitao
p9010
aVdekina
p9011
aVberono
p9012
aVthinks
p9013
aVlubricate
p9014
aVnepali
p9015
aVporom
p9016
aVeiiii
p9017
aVbidesi
p9018
aVjayhatao
p9019
aVjaygola
p9020
aVeikotha
p9021
aVlubricating
p9022
aVshab
p9023
aVsceard
p9024
aVdekini
p9025
aVkauate
p9026
aVvegenai
p9027
aVkaceo
p9028
aVsucked
p9029
aVpupill
p9030
aVshamoy
p9031
aVkhabu
p9032
aVuthlai
p9033
aVcumu
p9034
aVporngrafi
p9035
aVduitin
p9036
aVvangteeee
p9037
aVtadera
p9038
aVdormer
p9039
aVjothokkhon
p9040
aVdormea
p9041
aVdorme
p9042
aVdujonneree
p9043
aVaska
p9044
aVkharie
p9045
aVdujvonngu
p9046
aVdukabe
p9047
aVdorlei
p9048
aVutanur
p9049
aVdhakka
p9050
aVdeccelam
p9051
aVbhetha
p9052
aVbalobasha
p9053
aVrakmn
p9054
aVthape
p9055
aVvabasex
p9056
aVproblema
p9057
aVporittraner
p9058
aVsatisfction
p9059
aVkhaoyaece
p9060
aVdorvodharone
p9061
aVaslen
p9062
aVbechcge
p9063
aVmatahy
p9064
aVpenitration
p9065
aVbangladdsh
p9066
aVthans
p9067
aVprobash
p9068
aVporishar
p9069
aVkhaiya
p9070
aVshahoje
p9071
aVlegiya
p9072
aVduimax
p9073
aVbecuse
p9074
aVpusso
p9075
aVosuud
p9076
aVjibonn
p9077
aVsumsa
p9078
aVprobesher
p9079
aVmakiye
p9080
aVshbkichu
p9081
aVbaboharea
p9082
aVottejonar
p9083
aVsexta
p9084
aVmasqulin
p9085
aVkayabo
p9086
aVtanisha
p9087
aVporiskarkora
p9088
aVdhuksilo
p9089
aVjibb
p9090
aVdebrn
p9091
aVkambhab
p9092
aVduksilo
p9093
aVbhobishshote
p9094
aVduktesena
p9095
aVmabr
p9096
aVbhobona
p9097
aVsaxc
p9098
aVottejonatei
p9099
aVporlm
p9100
aVbaddotamulok
p9101
aVdukiei
p9102
aVdihadi
p9103
aVbech
p9104
aVdikey
p9105
aVporpore
p9106
aVjibn
p9107
aVdejo
p9108
aVottejok
p9109
aVbabohara
p9110
aVdukhano
p9111
aVdukhanor
p9112
aVkhashkhasha
p9113
aVdesige
p9114
aVsez
p9115
aVdukhce
p9116
aVdukhi
p9117
aVdeshay
p9118
aVreale
p9119
aVthather
p9120
aVutajona
p9121
aVkamal
p9122
aVdukiecelam
p9123
aVvaldo
p9124
aVdileki
p9125
aVdehore
p9126
aVotr
p9127
aVdevil
p9128
aVjjabar
p9129
aVdowr
p9130
aVbandubir
p9131
aVsatu
p9132
aVmastervate
p9133
aVsattyi
p9134
aVmasterbat
p9135
aVkayai
p9136
aVmasterbastion
p9137
aVdefference
p9138
aVporipurn
p9139
aVsunini
p9140
aVbaaa
p9141
aVassamullaikum
p9142
aVrahmat
p9143
aVliggho
p9144
aVaspect
p9145
aVneaua
p9146
aVprcur
p9147
aVbandubier
p9148
aVbaure
p9149
aVperiodeo
p9150
aVjornoi
p9151
aVdoz
p9152
aVjnen
p9153
aVdrijo
p9154
aVmasterbatson
p9155
aVcoulur
p9156
aVlija
p9157
aVdriste
p9158
aVdristikon
p9159
aVdristilon
p9160
aVdristub
p9161
aVnupital
p9162
aVassalamualkum
p9163
aVnotsure
p9164
aVsavabikvabei
p9165
aVjjor
p9166
aVjjodi
p9167
aVbatroome
p9168
aVdtls
p9169
aVmasturbasion
p9170
aVasona
p9171
aVototuko
p9172
aVlikcen
p9173
aVregural
p9174
aVpaileo
p9175
aVdudk
p9176
aVmadekal
p9177
aVrecomend
p9178
aVdoshek
p9179
aVsatisfie
p9180
aVprobav
p9181
aVkalato
p9182
aVdoshchintay
p9183
aVbadee
p9184
aVjime
p9185
aVduea
p9186
aVnotification
p9187
aVdoser
p9188
aVpailhana
p9189
aVjodin
p9190
aVtakib
p9191
aVpecum
p9192
aVbfer
p9193
aVbaarbe
p9194
aVnogonno
p9195
aVdubaite
p9196
aVkhalid
p9197
aVquntion
p9198
aVporipunno
p9199
aVputki
p9200
aVnotuon
p9201
aVdiny
p9202
aVutsahoi
p9203
aVmadicaler
p9204
aVdottet
p9205
aVsats
p9206
aVrekh
p9207
aVshathik
p9208
aVpojitaione
p9209
aVloive
p9210
aVjuono
p9211
aVasokta
p9212
aVprobbes
p9213
aVputkir
p9214
aVayurbedhik
p9215
aVashosthi
p9216
aVmaay
p9217
aVviatnamer
p9218
aVayeshob
p9219
aVmalle
p9220
aVbiair
p9221
aVdyhik
p9222
aVdokene
p9223
aVpurow
p9224
aVthaklao
p9225
aVdokete
p9226
aVkese
p9227
aVbiaye
p9228
aVjolio
p9229
aVasepore
p9230
aVbaktariya
p9231
aVkhawaiche
p9232
aVthekee
p9233
aVatau
p9234
aVkahara
p9235
aVkaheye
p9236
aVvarano
p9237
aVjevaber
p9238
aVkamta
p9239
aVashayse
p9240
aVpregnenc
p9241
aVdarte
p9242
aVdutotr
p9243
aVsastokor
p9244
aVdhukche
p9245
aVberhoie
p9246
aVmaue
p9247
aVqustin
p9248
aVrah
p9249
aVuthaite
p9250
aVduyo
p9251
aVvasinar
p9252
aVprobhab
p9253
aVlingher
p9254
aVverginar
p9255
aVdoktay
p9256
aVmanliness
p9257
aVjolclo
p9258
aVthekehelp
p9259
aVkamur
p9260
aVramdane
p9261
aVmayai
p9262
aVvaigra
p9263
aVjesocain
p9264
aVdisgust
p9265
aVjerin
p9266
aVvaigna
p9267
aVjugol
p9268
aVosontusto
p9269
aVsuka
p9270
aVdoijn
p9271
aVkaak
p9272
aVovoidho
p9273
aVbibato
p9274
aVbibeato
p9275
aVdoijjo
p9276
aVlvr
p9277
aVdoibar
p9278
aVbastop
p9279
aVnle
p9280
aVcomplicated
p9281
aVvabla
p9282
aVpaisey
p9283
aVkandly
p9284
aVdhokala
p9285
aVbedhi
p9286
aVthekena
p9287
aVdysfuntion
p9288
aVcunnilingus
p9289
aVvidar
p9290
aVaseml
p9291
aVdeahay
p9292
aVmainpoint
p9293
aVdhukan
p9294
aVsasthe
p9295
aVsuruta
p9296
aVdhojjovongo
p9297
aVjomai
p9298
aVdhokaa
p9299
aVjet
p9300
aVaseina
p9301
aVkhawajai
p9302
aVdhukaleu
p9303
aVdhokai
p9304
aVdhokale
p9305
aVashb
p9306
aVvhybyy
p9307
aVjhapata
p9308
aVkhau
p9309
aVbaraite
p9310
aVkartace
p9311
aVpeche
p9312
aVvaiyadhonnobad
p9313
aVpainless
p9314
aVdirkokon
p9315
aVsasurer
p9316
aVashoditha
p9317
aVmaldar
p9318
aVlingear
p9319
aVpacahi
p9320
aVpurusar
p9321
aVjoins
p9322
aVcudbo
p9323
aVcudte
p9324
aVbadit
p9325
aVkhauaini
p9326
aVporki
p9327
aVlokhoon
p9328
aVdonojoner
p9329
aVjhorsilo
p9330
aVshakhana
p9331
aVnuma
p9332
aVjotokhone
p9333
aVsegroe
p9334
aVdoreci
p9335
aVdirgaito
p9336
aVutai
p9337
aVdhukleo
p9338
aVbhojate
p9339
aVbhoke
p9340
aVmathro
p9341
aVsatameloner
p9342
aVdirggo
p9343
aVmagider
p9344
aVdirghokhon
p9345
aVpeneis
p9346
aVdakval
p9347
aVsurch
p9348
aVmalamesha
p9349
aVbetoray
p9350
aVdirgokkn
p9351
aVjemne
p9352
aVashlona
p9353
aVdurble
p9354
aVbhujbo
p9355
aVoanek
p9356
aVataaaaaa
p9357
aVdomoy
p9358
aVpyna
p9359
aVdali
p9360
aVatae
p9361
aVkaronn
p9362
aVconfident
p9363
aVjokki
p9364
aVdheyea
p9365
aVataer
p9366
aVsuroor
p9367
aVthaklee
p9368
aVverju
p9369
aVmakeout
p9370
aVkaroniyo
p9371
aVashcelam
p9372
aVphermecy
p9373
aVobocthay
p9374
aVtarekh
p9375
aVjhkn
p9376
aVconfusd
p9377
aVovash
p9378
aVutaba
p9379
aVsasur
p9380
aVdurbolata
p9381
aVkaroo
p9382
aVdhukiaa
p9383
aVdurbolotay
p9384
aVdurchinta
p9385
aVjya
p9386
aVjukite
p9387
aVashin
p9388
aVdonna
p9389
aVdaura
p9390
aVmatratirikto
p9391
aVmashole
p9392
aVbethore
p9393
aVpesonar
p9394
aVdhekla
p9395
aVthdecember
p9396
aVconfrimed
p9397
aVpecon
p9398
aVtarrr
p9399
aVjathiyo
p9400
aVkracilam
p9401
aVsomvhabona
p9402
aVkraite
p9403
aVhovu
p9404
aVghomota
p9405
aVbojtesena
p9406
aVmomin
p9407
aVsadshrab
p9408
aVhoware
p9409
aVakadik
p9410
aVgherena
p9411
aVakangkha
p9412
aVkrbar
p9413
aVakanto
p9414
aVkoitar
p9415
aVmoncay
p9416
aVghonu
p9417
aVhouwer
p9418
aVpiyese
p9419
aVcede
p9420
aVcedro
p9421
aVonumotite
p9422
aVbokho
p9423
aVghoshir
p9424
aVghoshi
p9425
aVokayna
p9426
aVprotakson
p9427
aVghose
p9428
aVcegare
p9429
aVboken
p9430
aVpracticality
p9431
aVpatlar
p9432
aVkpti
p9433
aVghorei
p9434
aVghorbovoti
p9435
aVummmm
p9436
aVkrbi
p9437
aVbojhan
p9438
aVkoiminit
p9439
aVsondho
p9440
aVonwewek
p9441
aVkoetey
p9442
aVtonuke
p9443
aVchabe
p9444
aVhoyechee
p9445
aVkoeci
p9446
aVonuvutir
p9447
aVgera
p9448
aVmohiral
p9449
aVgentlman
p9450
aVakhjon
p9451
aVsondusti
p9452
aVgeni
p9453
aVsonechosonechi
p9454
aVsonen
p9455
aVbojace
p9456
aVajjka
p9457
aVonuvuteta
p9458
aVakdon
p9459
aVakbarer
p9460
aVakbarey
p9461
aVcerle
p9462
aVmokea
p9463
aVkoikber
p9464
aVkoijon
p9465
aVporeca
p9466
aVmojao
p9467
aVwgeht
p9468
aVwfr
p9469
aVcese
p9470
aVhoybe
p9471
aVmojha
p9472
aVribbet
p9473
aVcethe
p9474
aVkoibarb
p9475
aVcesar
p9476
aVajjj
p9477
aVkoz
p9478
aVkolbalis
p9479
aVkoyakbar
p9480
aVgirlfrind
p9481
aVrime
p9482
aVcaoa
p9483
aVbolcchi
p9484
aVgirlfreind
p9485
aVgirler
p9486
aVsabna
p9487
aVhostomouthunar
p9488
aVbolbosoto
p9489
aVpordah
p9490
aVsihoje
p9491
aVpordai
p9492
aVcarap
p9493
aVgiggassa
p9494
aVwihout
p9495
aVhostomoythom
p9496
aVgiesilam
p9497
aVppttek
p9498
aVcansave
p9499
aVhostmothiun
p9500
aVkoutoholbosoto
p9501
aVsiktesi
p9502
aVgiyesi
p9503
aVprojoner
p9504
aVhostomatuin
p9505
aVmoove
p9506
aVhostomon
p9507
aVsomosyate
p9508
aVkowshole
p9509
aVhostomitun
p9510
aVcanc
p9511
aVaida
p9512
aVmookhe
p9513
aVnaima
p9514
aVsikhitye
p9515
aVsomoti
p9516
aVpissel
p9517
aVsihobas
p9518
aVhostumk
p9519
aVcax
p9520
aVhoteler
p9521
aVokhana
p9522
aVcayaci
p9523
aVbolahoiii
p9524
aVkolpito
p9525
aVwifeelr
p9526
aVkomab
p9527
aVpjz
p9528
aVkoyrkdin
p9529
aVnajar
p9530
aVghumaia
p9531
aVsomsomoy
p9532
aVghrena
p9533
aVkoli
p9534
aVghotonata
p9535
aVhotomoython
p9536
aVhostoumaitun
p9537
aVsadashrab
p9538
aVcatle
p9539
aVsompirko
p9540
aVsompkorko
p9541
aVsompokke
p9542
aVwifw
p9543
aVkomathe
p9544
aVkomari
p9545
aVgiae
p9546
aVhoteeee
p9547
aVbolbaan
p9548
aVsadaranoto
p9549
aVailable
p9550
aVkomannr
p9551
aVonubub
p9552
aVghuraichilo
p9553
aVwifke
p9554
aVghuracchilo
p9555
aVhostumuton
p9556
aVgenarallay
p9557
aVgen
p9558
aVboioser
p9559
aVunmarrite
p9560
aVparcchi
p9561
aVchartey
p9562
aVicchar
p9563
aVboay
p9564
aVsorily
p9565
aVkisudn
p9566
aVmitai
p9567
aVfroblem
p9568
aVfrineder
p9569
aVichse
p9570
aVbnglai
p9571
aVpira
p9572
aValok
p9573
aVkisokhaon
p9574
aVmisses
p9575
aVicchhe
p9576
aVchata
p9577
aVmitanor
p9578
aVcharome
p9579
aVkivabeeee
p9580
aVopkarita
p9581
aVopkrito
p9582
aVprep
p9583
aVshos
p9584
aVbochchor
p9585
aVmithuner
p9586
aVmitese
p9587
aVoplthei
p9588
aVsorbopori
p9589
aVsorbosso
p9590
aVcharecter
p9591
aVfulfill
p9592
aVallada
p9593
aVcharlai
p9594
aVtoconceive
p9595
aVkror
p9596
aVfurt
p9597
aValopathe
p9598
aValosh
p9599
aVkintok
p9600
aVunprotec
p9601
aVparamrtion
p9602
aVinactive
p9603
aVtkh
p9604
aVkinly
p9605
aVnisiddhho
p9606
aVcheetechi
p9607
aVshook
p9608
aVamaedr
p9609
aVblojob
p9610
aVvudai
p9611
aVinchs
p9612
aVfluqal
p9613
aVoigolate
p9614
aVamair
p9615
aVsotao
p9616
aViftekar
p9617
aVoiii
p9618
aVnangote
p9619
aVchatselam
p9620
aVchatte
p9621
aVpossibolitiy
p9622
aVfracturer
p9623
aVfotoi
p9624
aVkis
p9625
aVchayechi
p9626
aVchecha
p9627
aVunomodeto
p9628
aVmisle
p9629
aVporibarke
p9630
aVparbeee
p9631
aVsorrow
p9632
aVforpley
p9633
aVforpfor
p9634
aVpawho
p9635
aVparbenatw
p9636
aVhosthomthon
p9637
aVoirkok
p9638
aVvuul
p9639
aVpiso
p9640
aVakkthay
p9641
aVkoano
p9642
aVprbes
p9643
aVsonka
p9644
aVsonkoc
p9645
aVungul
p9646
aVsongsporsha
p9647
aVboga
p9648
aVhoztu
p9649
aVknt
p9650
aVgasstrick
p9651
aVporacha
p9652
aVshucking
p9653
aVpishol
p9654
aVshuck
p9655
aVhoyyy
p9656
aVunhpy
p9657
aVakke
p9658
aVmodheyi
p9659
aVakhonn
p9660
aVoonak
p9661
aVsonginir
p9662
aVmody
p9663
aVgeelings
p9664
aVkobona
p9665
aVrezuwanul
p9666
aVchaicilona
p9667
aVtolte
p9668
aVshukhai
p9669
aVooor
p9670
aVgecelam
p9671
aVmodhur
p9672
aVbohubar
p9673
aVakj
p9674
aVakjhon
p9675
aVchahidar
p9676
aVchapano
p9677
aVgarrenty
p9678
aVbodyeer
p9679
aVkkina
p9680
aVhusvand
p9681
aVkroci
p9682
aVgaen
p9683
aVkrole
p9684
aVporace
p9685
aVgacheee
p9686
aVwar
p9687
aVkjo
p9688
aVnisad
p9689
aVshoti
p9690
aVparchiba
p9691
aVpawaa
p9692
aVfuturea
p9693
aVhyclm
p9694
aVpreparetion
p9695
aVpriketii
p9696
aVakporjai
p9697
aVshottikare
p9698
aVkkora
p9699
aVbodth
p9700
aVgarfi
p9701
aVshthei
p9702
aVmodd
p9703
aVpischel
p9704
aVchalale
p9705
aVhuabnd
p9706
aVkrlyi
p9707
aVprotigga
p9708
aVwatar
p9709
aVsootahe
p9710
aVakste
p9711
aVkkore
p9712
aVmoaja
p9713
aVwarry
p9714
aVnamguli
p9715
aVmobi
p9716
aVsikun
p9717
aVkoushol
p9718
aVsomosi
p9719
aVzeno
p9720
aVonakkhon
p9721
aVongy
p9722
aVonicca
p9723
aVhocco
p9724
aVbrought
p9725
aVprorhom
p9726
aVhap
p9727
aVhandmiton
p9728
aVpartnerke
p9729
aVhandalling
p9730
aVprori
p9731
aVnabona
p9732
aVkorechlm
p9733
aVrotifin
p9734
aVzawar
p9735
aVbornona
p9736
aVonakecom
p9737
aVkortn
p9738
aVpartokko
p9739
aVpasselo
p9740
aVhasnand
p9741
aVsoarir
p9742
aVabosho
p9743
aVsohojodita
p9744
aVabossok
p9745
aVabostata
p9746
aVrogmukto
p9747
aVkortegele
p9748
aVabrag
p9749
aVkoret
p9750
aVmulon
p9751
aVnime
p9752
aVsmrp
p9753
aVboros
p9754
aVsojjhokhomota
p9755
aVsohovase
p9756
aVongooo
p9757
aVsmoe
p9758
aVzawa
p9759
aVmthun
p9760
aVbujaisi
p9761
aVbonon
p9762
aVbujarki
p9763
aVkorcheina
p9764
aVkorcheee
p9765
aVgylyi
p9766
aVgynecology
p9767
aVhohwa
p9768
aVplezer
p9769
aVbonew
p9770
aVpleze
p9771
aVrssathe
p9772
aVonadar
p9773
aVyoue
p9774
aVguruttopurno
p9775
aVbujbbe
p9776
aVbshikkhom
p9777
aVniomaboli
p9778
aVacjon
p9779
aVprorjonto
p9780
aVpros
p9781
aVacharan
p9782
aVachca
p9783
aVmuinit
p9784
aVporbai
p9785
aVpartisina
p9786
aVsolemolla
p9787
aVkorecela
p9788
aVsmay
p9789
aVpottekbar
p9790
aVkosaa
p9791
aVhabiba
p9792
aVhoesce
p9793
aVoniontrito
p9794
aVhaahwe
p9795
aVpartime
p9796
aVpartholko
p9797
aVhaster
p9798
aVhastomothan
p9799
aVaangul
p9800
aVmuuk
p9801
aVroktomat
p9802
aVaapo
p9803
aVkoroniw
p9804
aVkorlla
p9805
aVprolm
p9806
aVhelpus
p9807
aVheavenly
p9808
aVprom
p9809
aVrokot
p9810
aVsocheye
p9811
aVkorpur
p9812
aVplxx
p9813
aVboyosondikal
p9814
aVabaddo
p9815
aVtuluna
p9816
aVzokhon
p9817
aVzothesto
p9818
aVtumpa
p9819
aVsobobash
p9820
aVsobkhetre
p9821
aVroktober
p9822
aVplzzzzzzzzzz
p9823
aVmyer
p9824
aVbowa
p9825
aVbotoi
p9826
aVsobike
p9827
aVmyedr
p9828
aVhile
p9829
aVboyasa
p9830
aVkorlyo
p9831
aVkorlwee
p9832
aVonekkhn
p9833
aVhimel
p9834
aVpovesh
p9835
aVmyader
p9836
aVbosbo
p9837
aVtulnay
p9838
aVoneeker
p9839
aVkortaaa
p9840
aVsobceya
p9841
aVprokito
p9842
aVpronam
p9843
aVhatmiton
p9844
aVkoriechilm
p9845
aVaboddo
p9846
aVtymer
p9847
aVhatei
p9848
aVsohobasar
p9849
aVboschor
p9850
aVbreckup
p9851
aVmunitei
p9852
aVrohomota
p9853
aVsobada
p9854
aVsohobshe
p9855
aVmunnee
p9856
aVkorlaow
p9857
aVkoriii
p9858
aVpouchoyna
p9859
aVabasik
p9860
aVhccee
p9861
aVmusterbed
p9862
aVzmi
p9863
aVmustarbate
p9864
aVromans
p9865
aVnijhe
p9866
aVparye
p9867
aVkoritea
p9868
aVnilee
p9869
aVboshos
p9870
aVhavana
p9871
aVong
p9872
aVhauyar
p9873
aVkorinii
p9874
aVmushe
p9875
aVhawoar
p9876
aVcheng
p9877
aVbujena
p9878
aVgurutter
p9879
aVsommot
p9880
aVbyfrndr
p9881
aVgorea
p9882
aVgorbubori
p9883
aVgorboti
p9884
aVgorborti
p9885
aVagiye
p9886
aVkonorakam
p9887
aVulljekkho
p9888
aVhormolit
p9889
aVsommta
p9890
aVkotokn
p9891
aVbolexhilam
p9892
aVonobhob
p9893
aVboleto
p9894
aVnieya
p9895
aVkonomota
p9896
aVgorbhe
p9897
aVaggrohi
p9898
aVtransmition
p9899
aVxdimbanuk
p9900
aVxcitement
p9901
aVkontodin
p9902
aVgoshe
p9903
aVxboy
p9904
aVgoseci
p9905
aVproshnogulor
p9906
aVbollar
p9907
aVmotigoti
p9908
aVhomiopatheic
p9909
aVhomiopatik
p9910
aVkotoba
p9911
aVonnok
p9912
aVsommo
p9913
aVollpota
p9914
aVmotamti
p9915
aVppregnent
p9916
aVhomeopathe
p9917
aVgorbha
p9918
aVcadcena
p9919
aVsabais
p9920
aVahkar
p9921
aVonovoti
p9922
aVkottokhon
p9923
aVonovov
p9924
aVonovuti
p9925
aVhostamithun
p9926
aVahhhh
p9927
aVhostamothiner
p9928
aVgobirata
p9929
aVcalder
p9930
aVsomosher
p9931
aVtoy
p9932
aVglpo
p9933
aVparmo
p9934
aVnira
p9935
aVahpu
p9936
aVkotokutu
p9937
aVnieu
p9938
aVahamed
p9939
aVagroey
p9940
aVworker
p9941
aVagroi
p9942
aVagse
p9943
aVaguko
p9944
aVsimoi
p9945
aVgonorrhea
p9946
aVhosrometon
p9947
aVgonoriah
p9948
aVkondoron
p9949
aVcaise
p9950
aVbolemn
p9951
aVhoshe
p9952
aVsomoker
p9953
aVcaiteo
p9954
aVahamader
p9955
aVwo
p9956
aVbujer
p9957
aVsomie
p9958
aVgotanor
p9959
aVkoratao
p9960
aVprosaron
p9961
aVhoikeno
p9962
aVkorashi
p9963
aVbujhtecen
p9964
aVonkkhn
p9965
aVmpddhe
p9966
aVtrito
p9967
aVpotnir
p9968
aVadis
p9969
aVyeaster
p9970
aVkotga
p9971
aVmovite
p9972
aVmovier
p9973
aVrltnn
p9974
aVbujjbeee
p9975
aVadim
p9976
aVpotmbar
p9977
aVguponagge
p9978
aVsoluotion
p9979
aVbujeye
p9980
aVparthoko
p9981
aVskt
p9982
aVbondokorte
p9983
aVuddar
p9984
aVadanor
p9985
aVpotrika
p9986
aVkoraye
p9987
aVyoifer
p9988
aVsoltn
p9989
aVhoichoa
p9990
aVyo
p9991
aVpartey
p9992
aVplesce
p9993
aVkostu
p9994
aVmreij
p9995
aVparthokke
p9996
aVgotaini
p9997
aVyastan
p9998
aVgudee
p9999
aVafe
p10000
aVpathaien
p10001
aVsombohobona
p10002
aVnioya
p10003
aVkothohole
p10004
aVgponango
p10005
aVholbn
p10006
aVsitale
p10007
aVhold
p10008
aVsomehai
p10009
aVsiruknakeno
p10010
aVkothotoko
p10011
aVsirle
p10012
aVolpte
p10013
aVholoje
p10014
aVhoma
p10015
aVsomdhan
p10016
aVkothaa
p10017
aVbujuk
p10018
aVhoiyche
p10019
aVkorajiy
p10020
aVtrifti
p10021
aVbujlle
p10022
aVboltisi
p10023
aVmouthun
p10024
aVkorajaby
p10025
aVpotiti
p10026
aVhoiycilo
p10027
aVgruper
p10028
aVpotita
p10029
aVmousa
p10030
aVhoity
p10031
aVxxxxxx
p10032
aVboltecee
p10033
aVbujtha
p10034
aVmouk
p10035
aVporcelo
p10036
aVcherara
p10037
aVsoni
p10038
aVchodir
p10039
aVvoiye
p10040
aVjabona
p10041
aVanumoti
p10042
aVfaisal
p10043
aVfelan
p10044
aVpie
p10045
aVcinia
p10046
aVbjtcena
p10047
aVchitanor
p10048
aVfelcche
p10049
aVjanabem
p10050
aVorgasom
p10051
aVshobah
p10052
aVshomasha
p10053
aVsarailar
p10054
aVenaf
p10055
aVanga
p10056
aVkhuk
p10057
aVchirsa
p10058
aVbjpat
p10059
aVkuvabe
p10060
aVbisoyhok
p10061
aVmhodhe
p10062
aVtifti
p10063
aVmilamesa
p10064
aVkhosano
p10065
aVocheton
p10066
aVvoni
p10067
aVkunobabei
p10068
aVpaoyr
p10069
aVnistis
p10070
aVporibottn
p10071
aVjamte
p10072
aVbizzo
p10073
aVcholsete
p10074
aVbirj
p10075
aVapmr
p10076
aVapn
p10077
aVamontron
p10078
aVbisoytir
p10079
aVamnu
p10080
aVshombonde
p10081
aVbjjropat
p10082
aVfalacelo
p10083
aVfeat
p10084
aVcintha
p10085
aVspecialit
p10086
aVjanr
p10087
aVmilonee
p10088
aVcirleo
p10089
aVexplaination
p10090
aVniyemito
p10091
aVsamporke
p10092
aVfemi
p10093
aVkhubei
p10094
aVuolekhkho
p10095
aVspaclist
p10096
aVmiloneeeee
p10097
aVeshomoy
p10098
aVmelaril
p10099
aVcittker
p10100
aVthokom
p10101
aVjanten
p10102
aVloution
p10103
aVkuk
p10104
aVemegency
p10105
aVammra
p10106
aVjamair
p10107
aVkichua
p10108
aVextended
p10109
aVpramiker
p10110
aVvitoreeee
p10111
aVvoipay
p10112
aVpoddotia
p10113
aVfelings
p10114
aVchirle
p10115
aVchirey
p10116
aVupkito
p10117
aVchonu
p10118
aVnf
p10119
aVpublem
p10120
aVmilitu
p10121
aVfelligs
p10122
aVupaai
p10123
aVmeyerao
p10124
aVsansatio
p10125
aVmeyedrki
p10126
aVbirotto
p10127
aVanioyomito
p10128
aVsama
p10129
aVfaak
p10130
aVmilonkalin
p10131
aVkhosai
p10132
aVchusabo
p10133
aVfalls
p10134
aVbirkopat
p10135
aVchusse
p10136
aVnarcelo
p10137
aVpanara
p10138
aVkhusina
p10139
aVtikmotu
p10140
aVpaoear
p10141
aVthotto
p10142
aVmidu
p10143
aVbivaho
p10144
aVbirjosokol
p10145
aVbirjopoton
p10146
aVpoorness
p10147
aVupokritu
p10148
aVpaoua
p10149
aVordhekta
p10150
aVupiae
p10151
aVentibytic
p10152
aVshomnobona
p10153
aVjanana
p10154
aVaoundho
p10155
aVfalty
p10156
aVsamma
p10157
aVchyka
p10158
aVityadi
p10159
aVjananu
p10160
aVmentent
p10161
aVnarder
p10162
aVsamliye
p10163
aVporichonno
p10164
aVaopo
p10165
aVchusla
p10166
aVkhuuub
p10167
aVaorgajom
p10168
aVaobash
p10169
aVshomoissa
p10170
aViy
p10171
aVbiroko
p10172
aVkhute
p10173
aVitali
p10174
aVniyae
p10175
aVvlobashe
p10176
aVfamile
p10177
aVvongakur
p10178
aVstieir
p10179
aVorai
p10180
aVbiroktto
p10181
aVoshabdhanota
p10182
aVchodla
p10183
aVsantir
p10184
aVjabbot
p10185
aVsamnae
p10186
aVbirjogulu
p10187
aVorgajom
p10188
aVnistrito
p10189
aVkibabaaa
p10190
aVchodachodir
p10191
aVchodachodi
p10192
aVspnodosh
p10193
aVjabeee
p10194
aVstiri
p10195
aVchusar
p10196
aVpicccillo
p10197
aVbiyerr
p10198
aVtimeing
p10199
aVchusena
p10200
aVniyche
p10201
aVancta
p10202
aVengin
p10203
aVstimulant
p10204
aVchushteo
p10205
aVapeee
p10206
aVfatbena
p10207
aVfalice
p10208
aVpoosno
p10209
aVchushte
p10210
aVkunub
p10211
aVanchilam
p10212
aVchusi
p10213
aVistha
p10214
aVpicchillo
p10215
aVcikitsaloy
p10216
aVerected
p10217
aVoerrr
p10218
aVchush
p10219
aVporicchono
p10220
aVamrato
p10221
aVchoia
p10222
aVpijikal
p10223
aVamrkhub
p10224
aVpanirmoto
p10225
aVsth
p10226
aVlagaini
p10227
aVansur
p10228
aVjainito
p10229
aVpolyp
p10230
aVsarbocho
p10231
aVfiguring
p10232
aVpina
p10233
aVansawer
p10234
aVameke
p10235
aVkhethre
p10236
aVshojey
p10237
aVbinno
p10238
aVkubabe
p10239
aVjaiiiiii
p10240
aVvisese
p10241
aVeshse
p10242
aVniymito
p10243
aVetta
p10244
aVfigger
p10245
aVfig
p10246
aVanondho
p10247
aVjaouno
p10248
aVeleder
p10249
aVfianc
p10250
aVnisrito
p10251
aVchote
p10252
aVetsuk
p10253
aVestrike
p10254
aVchotha
p10255
aVkicuinai
p10256
aVshohobush
p10257
aVchothi
p10258
aVkicukhn
p10259
aVaramdayok
p10260
aVsteady
p10261
aVthofat
p10262
aVameture
p10263
aVjaiej
p10264
aVshiray
p10265
aVpalba
p10266
aVbikrity
p10267
aVkigba
p10268
aVjariue
p10269
aVmeera
p10270
aVkhra
p10271
aVjaigatate
p10272
aVparaji
p10273
aVanso
p10274
aVlageyna
p10275
aVjaruer
p10276
aVstrike
p10277
aVminters
p10278
aVodal
p10279
aVktokhhon
p10280
aVchousle
p10281
aVmeucas
p10282
aVmeeye
p10283
aVcleaar
p10284
aVansrta
p10285
aVkieen
p10286
aVstrawberry
p10287
aVbirzor
p10288
aVsouna
p10289
aVfilms
p10290
aVeku
p10291
aVunsecured
p10292
aVjaraui
p10293
aVtisha
p10294
aVvrja
p10295
aVamazing
p10296
aVmeucus
p10297
aVsouke
p10298
aVjarayor
p10299
aVblessings
p10300
aVekttu
p10301
aVsalamalaikum
p10302
aVektukuo
p10303
aVniajai
p10304
aVodear
p10305
aVclosely
p10306
aVchudta
p10307
aVclassic
p10308
aVpondhar
p10309
aVchose
p10310
aVanobob
p10311
aVinsufficient
p10312
aVoppae
p10313
aVferle
p10314
aVjanw
p10315
aVshohobus
p10316
aVopoy
p10317
aVlabium
p10318
aVchubby
p10319
aVjaiy
p10320
aVmelam
p10321
aVeteeee
p10322
aVchuci
p10323
aVcherleo
p10324
aVineterst
p10325
aVchosale
p10326
aVtitmane
p10327
aVmedicinemedicine
p10328
aVamivkoi
p10329
aVkikono
p10330
aVprouchor
p10331
aVchudachudi
p10332
aVetee
p10333
aVfla
p10334
aVintarcourse
p10335
aVsotite
p10336
aVmininter
p10337
aVkhibhabe
p10338
aVpsreni
p10339
aVannodo
p10340
aVproves
p10341
aVchosha
p10342
aVmeydar
p10343
aVcjeleder
p10344
aVkijeno
p10345
aVchudachudir
p10346
aVemaergence
p10347
aVjaitace
p10348
aVesprso
p10349
aVfhete
p10350
aVfhimgaring
p10351
aVphysicle
p10352
aVpuili
p10353
aVbisayta
p10354
aVexcitation
p10355
aVclanti
p10356
aVmethode
p10357
aVchilay
p10358
aVnasik
p10359
aVktkkn
p10360
aVesomoye
p10361
aVbirup
p10362
aVckren
p10363
aVthoko
p10364
aVvitarer
p10365
aVthoken
p10366
aVexcite
p10367
aVkhotye
p10368
aVsovcha
p10369
aVpleae
p10370
aVnovet
p10371
aVjananow
p10372
aVgulata
p10373
aVpldz
p10374
aVerabo
p10375
aVmete
p10376
aVhoiecilo
p10377
aVhootese
p10378
aVjajsi
p10379
aVbalccha
p10380
aVgoroproti
p10381
aVmeny
p10382
aVercheye
p10383
aVkaic
p10384
aVetaadi
p10385
aVadif
p10386
aVdhuiya
p10387
aVdher
p10388
aVaseee
p10389
aVhopefully
p10390
aVprositive
p10391
aVpoddthoti
p10392
aVnovista
p10393
aVaggay
p10394
aVgulow
p10395
aVplent
p10396
aVpleeeeeeeeeeeezzzzzzz
p10397
aVomot
p10398
aVpoddte
p10399
aVadort
p10400
aVbaiupathe
p10401
aVgothomashe
p10402
aVdhoraa
p10403
aVesei
p10404
aVeseci
p10405
aVgothomaser
p10406
aVjamben
p10407
aVnata
p10408
aVjeler
p10409
aVafct
p10410
aVsombobhona
p10411
aVjammo
p10412
aVgrche
p10413
aVpodhothi
p10414
aVascy
p10415
aVxjct
p10416
aVmajhkan
p10417
aVncy
p10418
aVsombonani
p10419
aVonnichhukbabu
p10420
aVnelay
p10421
aVmotto
p10422
aVtaloto
p10423
aVmervelon
p10424
aVpleasd
p10425
aVeshechilen
p10426
aVantivaitic
p10427
aVgoyno
p10428
aVpichea
p10429
aVkachai
p10430
aVsistem
p10431
aVmajhamajite
p10432
aVnelam
p10433
aVkaicilo
p10434
aVsujetion
p10435
aVsommode
p10436
aVsombhona
p10437
aVsestame
p10438
aVkaecilo
p10439
aVrajib
p10440
aVgorvoniroder
p10441
aVgorvonirod
p10442
aVadvices
p10443
aVposibillity
p10444
aVocto
p10445
aVechchuk
p10446
aVanusthhanikota
p10447
aVsherer
p10448
aVkab
p10449
aVvaluless
p10450
aVagein
p10451
aVesyhai
p10452
aVhoitaake
p10453
aVjeptol
p10454
aVagamo
p10455
aVshoddho
p10456
aVvangenai
p10457
aVjanabebn
p10458
aVonnar
p10459
aVdhokle
p10460
aVhoitw
p10461
aVaseay
p10462
aVgrostho
p10463
aVestion
p10464
aVyapu
p10465
aVochid
p10466
aVvie
p10467
aVjanachchi
p10468
aVsewor
p10469
aVhomieo
p10470
aVjakane
p10471
aVaecha
p10472
aVsombabbho
p10473
aVsthayeetto
p10474
aVflazil
p10475
aVpodhotee
p10476
aVmurch
p10477
aVemarkenchi
p10478
aVhoacili
p10479
aVemarjenchi
p10480
aVemargncy
p10481
aVjanzben
p10482
aVbarete
p10483
aVejit
p10484
aVsobchaita
p10485
aVvaginir
p10486
aVabin
p10487
aVemargence
p10488
aVsobas
p10489
aVemargecy
p10490
aVappe
p10491
aVlukie
p10492
aVemaegancy
p10493
aVmusi
p10494
aVpromlam
p10495
aVhlww
p10496
aVhayachilo
p10497
aVsobchea
p10498
aVporobotita
p10499
aVonessuk
p10500
aVsobchey
p10501
aVhlokina
p10502
aVemargany
p10503
aVkaoai
p10504
aVsohoba
p10505
aVemasei
p10506
aVapnek
p10507
aVabrw
p10508
aVhobooo
p10509
aVtarekhe
p10510
aVhoboo
p10511
aVhobhe
p10512
aVjansban
p10513
aVsmvobna
p10514
aVabove
p10515
aVeimasher
p10516
aVemmergency
p10517
aVobostat
p10518
aVaboation
p10519
aVemmargency
p10520
aVabossho
p10521
aVemergencie
p10522
aVsobabona
p10523
aVemediatly
p10524
aVeite
p10525
aVneontronar
p10526
aVneontrone
p10527
aVemcin
p10528
aVsohobaskale
p10529
aVemato
p10530
aVdenal
p10531
aVjayez
p10532
aVabosso
p10533
aVmelitu
p10534
aVkaoata
p10535
aVovstat
p10536
aVsubhida
p10537
aVbarth
p10538
aVdekhsilam
p10539
aVmedicineti
p10540
aVobosti
p10541
aVekjone
p10542
aVpuller
p10543
aVonekkbar
p10544
aVpovasi
p10545
aVviroti
p10546
aVsobseye
p10547
aVaakhan
p10548
aVmedicins
p10549
aVsobq
p10550
aVheshebe
p10551
aVkaptece
p10552
aVaranor
p10553
aVnaye
p10554
aVphyshical
p10555
aVmyeke
p10556
aVnorted
p10557
aVekhatre
p10558
aVekhttu
p10559
aVobosthata
p10560
aVhhospital
p10561
aVpulsy
p10562
aVmedically
p10563
aVhjn
p10564
aVpungency
p10565
aVaanosoron
p10566
aVhbeeee
p10567
aVhber
p10568
aVhbna
p10569
aVobshtia
p10570
aVovstate
p10571
aVdektec
p10572
aVsodho
p10573
aVshisho
p10574
aVvirginate
p10575
aVsoddho
p10576
aVekasathe
p10577
aVjapone
p10578
aVhelpul
p10579
aVsochoracor
p10580
aVhealpful
p10581
aVbarriier
p10582
aVbars
p10583
aVperegnecy
p10584
aVsoches
p10585
aVaasurakshit
p10586
aVkaonor
p10587
aVmutia
p10588
aVaaronor
p10589
aVkaota
p10590
aVkaowisi
p10591
aVnoso
p10592
aVkaola
p10593
aVsojhyo
p10594
aVtarekha
p10595
aVvitorai
p10596
aVshobgulo
p10597
aVpottakbar
p10598
aVenne
p10599
aVplii
p10600
aVenjektion
p10601
aVhohoyni
p10602
aVperiodhoyese
p10603
aVyoy
p10604
aVefecct
p10605
aVporoke
p10606
aVnotum
p10607
aVmenj
p10608
aVsolpomattrar
p10609
aVgynaecocid
p10610
aVeffectt
p10611
aVengage
p10612
aVgynichologist
p10613
aVnadiye
p10614
aVkakon
p10615
aVonirapotta
p10616
aVhog
p10617
aVsukaia
p10618
aVeney
p10619
aVenesi
p10620
aVhoeyese
p10621
aVnavel
p10622
aVtaoki
p10623
aVtapet
p10624
aVmadichin
p10625
aVvalobhabe
p10626
aVguracha
p10627
aVoboskari
p10628
aVkaiechilam
p10629
aVovastret
p10630
aVdhanmondir
p10631
aVkailm
p10632
aVprod
p10633
aVmrking
p10634
aVpiccle
p10635
aVmrkorte
p10636
aVkaisa
p10637
aVneoaa
p10638
aVmensile
p10639
aVgurder
p10640
aVshessh
p10641
aVobossbai
p10642
aVsugessions
p10643
aVmru
p10644
aVeeeeeettoo
p10645
aVgurta
p10646
aVbalu
p10647
aVbaly
p10648
aVskunk
p10649
aVepileptic
p10650
aVsolposthai
p10651
aVkaiyecilam
p10652
aVmrp
p10653
aVmadghome
p10654
aVjdio
p10655
aVpojitive
p10656
aVbanglo
p10657
aVporve
p10658
aVsmoll
p10659
aVbanladeshe
p10660
aVemrgncy
p10661
aVemployee
p10662
aVhocee
p10663
aVapnanar
p10664
aVzehetu
p10665
aVemplant
p10666
aVemotobosthay
p10667
aVjanmon
p10668
aVeibaro
p10669
aVjanmoniontron
p10670
aVhoccilona
p10671
aVjannan
p10672
aVhaor
p10673
aVraktay
p10674
aVjayoar
p10675
aVmeanz
p10676
aVshnc
p10677
aVeijnno
p10678
aVaccca
p10679
aVhocchen
p10680
aVemokon
p10681
aVacbar
p10682
aVbapshai
p10683
aVjanlae
p10684
aVovested
p10685
aVvitotay
p10686
aVzacchena
p10687
aVhacha
p10688
aVhoechilam
p10689
aVpicay
p10690
aVhoechay
p10691
aVapju
p10692
aVachr
p10693
aVdeteils
p10694
aVsepti
p10695
aVkalhe
p10696
aVsmarp
p10697
aVsmass
p10698
aVvitr
p10699
aVaruo
p10700
aVseptambar
p10701
aVdetailsa
p10702
aVhaise
p10703
aVhaito
p10704
aVmeadi
p10705
aVhajj
p10706
aVdesolin
p10707
aVkallche
p10708
aVhochilona
p10709
aVartik
p10710
aVarticles
p10711
aVjaniyen
p10712
aVvalidity
p10713
aVkaiclo
p10714
aVjaitoo
p10715
aVduschintar
p10716
aVoctobere
p10717
aVintetcourse
p10718
aVsunirdisto
p10719
aVfemicom
p10720
aVpodhotiti
p10721
aVpeuilii
p10722
aVveginay
p10723
aVjinmo
p10724
aVsooon
p10725
aVpoduti
p10726
aVgao
p10727
aVpili
p10728
aVspar
p10729
aVvorsha
p10730
aVjonipathe
p10731
aVprotidiney
p10732
aVdjon
p10733
aVoparatn
p10734
aVhspitl
p10735
aVpodditi
p10736
aVqua
p10737
aVfelt
p10738
aVprotidi
p10739
aVquamra
p10740
aVdiyer
p10741
aVpreagneancy
p10742
aVpoddite
p10743
aVpodthoti
p10744
aVintermideat
p10745
aVakthu
p10746
aVatrar
p10747
aVjjn
p10748
aVdnr
p10749
aVpossubility
p10750
aVmmatha
p10751
aVpillkhawar
p10752
aVpodate
p10753
aVhva
p10754
aVsusu
p10755
aValade
p10756
aVmincon
p10757
aVakyu
p10758
aVfelsilam
p10759
aVhuut
p10760
aVjjaite
p10761
aVgaicay
p10762
aVgaichilo
p10763
aVpirjonto
p10764
aVsp
p10765
aVqesta
p10766
aVshangsarik
p10767
aVdrown
p10768
aVprotimasei
p10769
aVprotikkia
p10770
aVmarvellon
p10771
aVhusbandar
p10772
aVvejaina
p10773
aVsontaan
p10774
aViphill
p10775
aVfeliye
p10776
aVshukaye
p10777
aVpharmesi
p10778
aVpharmicy
p10779
aVpragnrnchy
p10780
aVfelai
p10781
aVmodme
p10782
aVhoyejay
p10783
aVmaristops
p10784
aVgeclm
p10785
aVfeileni
p10786
aVpoddote
p10787
aVmilay
p10788
aVjonmoniyantron
p10789
aVhoyegelo
p10790
aVsonggir
p10791
aVobiastai
p10792
aVsyd
p10793
aVgello
p10794
aVaslelo
p10795
aVprothob
p10796
aVjonow
p10797
aVavotn
p10798
aVprojesteron
p10799
aVaslamwlai
p10800
aVprojhontho
p10801
aVmarbolon
p10802
aVquer
p10803
aVnamti
p10804
aVshomoyetate
p10805
aVpragency
p10806
aVopakkhae
p10807
aVswabhabotai
p10808
aVhpeer
p10809
aVgaslo
p10810
aVakokhn
p10811
aVfelina
p10812
aVweaknesses
p10813
aVfelichi
p10814
aVweaknessr
p10815
aVjonme
p10816
aVpragenence
p10817
aVdudenal
p10818
aVoracl
p10819
aVgatio
p10820
aVhoysili
p10821
aVfelechilo
p10822
aVakltu
p10823
aVpoddodi
p10824
aVjonmobirodhikoron
p10825
aVspel
p10826
aVprohoti
p10827
aVgazi
p10828
aVfelchhi
p10829
aVprpthombar
p10830
aVavaby
p10831
aVjonmobitotikoron
p10832
aVire
p10833
aVopshora
p10834
aVsopting
p10835
aVsoptting
p10836
aVpreagment
p10837
aVfirday
p10838
aVasudh
p10839
aVoiitay
p10840
aVoija
p10841
aVdonnoban
p10842
aVpoddhotita
p10843
aVpiourd
p10844
aVmasick
p10845
aVpragnencey
p10846
aVdonal
p10847
aVdompotthi
p10848
aVsotteoe
p10849
aVimargeny
p10850
aVsorote
p10851
aVilligal
p10852
aVopokritto
p10853
aVportec
p10854
aVminstatiom
p10855
aVfingar
p10856
aVoije
p10857
aVmisprostal
p10858
aVpoddhitita
p10859
aVmisscarc
p10860
aVihhh
p10861
aVmisscarraige
p10862
aVjobs
p10863
aVdoubble
p10864
aVimmergecy
p10865
aVjoined
p10866
aVvson
p10867
aVshonlam
p10868
aVincomplet
p10869
aVamarai
p10870
aVpragnence
p10871
aVamagi
p10872
aVfndar
p10873
aVfoddote
p10874
aVveteroy
p10875
aVpgnncy
p10876
aVpinapple
p10877
aVamadel
p10878
aVoporau
p10879
aVamadae
p10880
aVfoleo
p10881
aVinfectin
p10882
aVamaber
p10883
aVvugiye
p10884
aVoporei
p10885
aVmaski
p10886
aVpiod
p10887
aVjoibar
p10888
aVjoice
p10889
aVpodin
p10890
aVimportan
p10891
aVimplatation
p10892
aVpreagnacy
p10893
aVprocedures
p10894
aVingashon
p10895
aVinitial
p10896
aVpodotti
p10897
aVhynay
p10898
aVatkabo
p10899
aVassalamua
p10900
aVamia
p10901
aVjommu
p10902
aVminites
p10903
aVproved
p10904
aVpilti
p10905
aVfurmeci
p10906
aVjlfi
p10907
aVhyegalo
p10908
aVfiancer
p10909
aVohhh
p10910
aVothcho
p10911
aVsoranoponno
p10912
aVsovbona
p10913
aValeena
p10914
aVmasekar
p10915
aVfutu
p10916
aVminipill
p10917
aVhychlo
p10918
aVjonagi
p10919
aVatoto
p10920
aVsovobona
p10921
aVmiyadi
p10922
aVoirodh
p10923
aVnance
p10924
aVpiluli
p10925
aVosudtar
p10926
aVpragnec
p10927
aVsorjoo
p10928
aVinjakson
p10929
aVfilow
p10930
aVfried
p10931
aVinjction
p10932
aVichhok
p10933
aVichchha
p10934
aVjolsilo
p10935
aVopnen
p10936
aVsunun
p10937
aVshashte
p10938
aVopm
p10939
aVinjectable
p10940
aVpysicle
p10941
aVpirapirity
p10942
aVinjectioner
p10943
aVfijikal
p10944
aVsovabona
p10945
aVjnni
p10946
aVfufure
p10947
aVportection
p10948
aVphamachi
p10949
aVoaisilam
p10950
aVhytec
p10951
aVdoyjon
p10952
aVmasheak
p10953
aVmarbelon
p10954
aVdisputed
p10955
aVisovant
p10956
aVoditive
p10957
aVaijke
p10958
aVprodokkep
p10959
aVvoia
p10960
aVnainai
p10961
aVeytai
p10962
aVmeyekei
p10963
aVanila
p10964
aVjownage
p10965
aVbacchanalian
p10966
aVjachhii
p10967
aVshabash
p10968
aVaijnno
p10969
aVplagche
p10970
aVhostomokon
p10971
aVgito
p10972
aVaniye
p10973
aVpoddotir
p10974
aVprtirodh
p10975
aVmattra
p10976
aVtain
p10977
aVankkhn
p10978
aVmattrar
p10979
aVokne
p10980
aVexpense
p10981
aVmisak
p10982
aVshediner
p10983
aVaibaro
p10984
aVfadt
p10985
aVbaccah
p10986
aVjhukii
p10987
aVnaiti
p10988
aVsrape
p10989
aVdieci
p10990
aVmiadi
p10991
aVtahkbo
p10992
aVjabei
p10993
aVporovortite
p10994
aVmiad
p10995
aVplacebo
p10996
aVfalache
p10997
aVjouna
p10998
aVjounoggar
p10999
aVsomporkay
p11000
aVhotapare
p11001
aVjounagi
p11002
aVsompokko
p11003
aVpeshai
p11004
aVjounanggo
p11005
aVmgr
p11006
aVbacaben
p11007
aVdiclam
p11008
aVsompirke
p11009
aVmonthy
p11010
aVtaholeko
p11011
aVangagemented
p11012
aVghurtece
p11013
aVsuloramorso
p11014
aVshoki
p11015
aVssedin
p11016
aVsomoithi
p11017
aVdyechan
p11018
aVbadai
p11019
aVnsb
p11020
aVjulea
p11021
aVbadda
p11022
aVsomoita
p11023
aVjunna
p11024
aVgont
p11025
aVsomodhe
p11026
aVaguest
p11027
aVnahiyan
p11028
aVansi
p11029
aVjuraiyo
p11030
aVagregment
p11031
aVoboktti
p11032
aVansw
p11033
aVgorbhi
p11034
aVaseo
p11035
aVmethods
p11036
aVgorbhonirdharon
p11037
aVgorbhopat
p11038
aVgorboboty
p11039
aVjyni
p11040
aVbadshor
p11041
aVmakeing
p11042
aVgorabe
p11043
aVmeyade
p11044
aVmevelum
p11045
aVsheheto
p11046
aVraedy
p11047
aVokta
p11048
aVbachbr
p11049
aVprchen
p11050
aVexcitedly
p11051
aVjtey
p11052
aVsomoshshar
p11053
aVnta
p11054
aVneiom
p11055
aVpursu
p11056
aVdiasilan
p11057
aVnaiki
p11058
aVdyasa
p11059
aVodhdhe
p11060
aVgode
p11061
aVahn
p11062
aVanonddo
p11063
aVwithdral
p11064
aVjahy
p11065
aVorperiod
p11066
aVsomorsar
p11067
aVvao
p11068
aVhossclo
p11069
aVhosscilo
p11070
aVwithdraw
p11071
aVnahowar
p11072
aVposibolity
p11073
aVolle
p11074
aVpotection
p11075
aVjabanen
p11076
aVjorayoooo
p11077
aVneacilm
p11078
aVakbarii
p11079
aVjibonar
p11080
aVpoele
p11081
aVdukcelo
p11082
aVjorayutei
p11083
aVprotam
p11084
aVdirgosomoy
p11085
aVsomvovona
p11086
aVpiiler
p11087
aVghantar
p11088
aVakdh
p11089
aVshuntam
p11090
aVdirecty
p11091
aVamsik
p11092
aVshururaager
p11093
aVamther
p11094
aVpiuord
p11095
aVfarmacyr
p11096
aVsomvobina
p11097
aVhowanor
p11098
aVpiwli
p11099
aVprostiti
p11100
aVsomvhom
p11101
aVfarmacy
p11102
aVdukhaite
p11103
aVjibi
p11104
aVofficially
p11105
aVshakkhat
p11106
aVmohortte
p11107
aVdispensaryte
p11108
aVdispensary
p11109
aVakhdh
p11110
aVpisycal
p11111
aVnusto
p11112
aVakhani
p11113
aVmihurte
p11114
aVsondheho
p11115
aVsondehe
p11116
aVhoyclo
p11117
aVshalam
p11118
aVaykoy
p11119
aVgey
p11120
aVgeyche
p11121
aVprotectoin
p11122
aVquesr
p11123
aVshayla
p11124
aVsystom
p11125
aVhoycca
p11126
aVgh
p11127
aVfatte
p11128
aVistere
p11129
aVfatiechi
p11130
aVprotectly
p11131
aVpushed
p11132
aVhoychee
p11133
aVsidle
p11134
aVfarma
p11135
aVdinire
p11136
aVjothar
p11137
aVjothariti
p11138
aVvolen
p11139
aVghotano
p11140
aVfame
p11141
aVnumbr
p11142
aVmanser
p11143
aVprsilo
p11144
aVvatece
p11145
aVqussan
p11146
aVshahariar
p11147
aVhouatai
p11148
aVsultana
p11149
aVhouae
p11150
aVmonish
p11151
aVmonmora
p11152
aVjotodir
p11153
aVaitha
p11154
aVbaboharik
p11155
aVotthat
p11156
aVashongkha
p11157
aVhotsana
p11158
aVjhulia
p11159
aVaite
p11160
aVneachi
p11161
aVjaarfole
p11162
aVordhak
p11163
aVghonata
p11164
aVneacilam
p11165
aVtacharaakhono
p11166
aVdinini
p11167
aVjormoniontoron
p11168
aVjormoniontron
p11169
aVhovey
p11170
aVhovena
p11171
aVmidde
p11172
aVtableti
p11173
aViti
p11174
aVghonte
p11175
aVghontha
p11176
aVvollo
p11177
aVsomvaboma
p11178
aVjoteshto
p11179
aVotrgatril
p11180
aVdinao
p11181
aVajnw
p11182
aVsumaject
p11183
aVsomvabaona
p11184
aVhous
p11185
aVsuma
p11186
aViuc
p11187
aVghorvostha
p11188
aVmanther
p11189
aVostahi
p11190
aVmantain
p11191
aVtacarao
p11192
aVjoroli
p11193
aVboue
p11194
aVchutir
p11195
aVbhula
p11196
aVniym
p11197
aVlagclo
p11198
aVsafest
p11199
aVcholtasay
p11200
aVsafetime
p11201
aVupketo
p11202
aVkheyenisi
p11203
aVkorcce
p11204
aVthamchilona
p11205
aVribbed
p11206
aVsaftey
p11207
aVnewr
p11208
aVclayer
p11209
aVkohay
p11210
aVbesidiner
p11211
aVniyesailam
p11212
aVregarding
p11213
aVcesear
p11214
aVcountrol
p11215
aVbbolecilo
p11216
aVblone
p11217
aVpatsena
p11218
aVbojhbo
p11219
aVbojhatei
p11220
aVborteta
p11221
aVnieala
p11222
aVkorleto
p11223
aVnoriks
p11224
aVcerebral
p11225
aVbujhya
p11226
aVkoimash
p11227
aVthakas
p11228
aVkoimas
p11229
aVbeshkicchukkhon
p11230
aVkathir
p11231
aVtkhe
p11232
aVkoikti
p11233
aVdeathless
p11234
aVkatho
p11235
aVkoiyer
p11236
aVtelling
p11237
aVnichchi
p11238
aVkoc
p11239
aVsbkicu
p11240
aVchaharai
p11241
aVneypm
p11242
aVdampotter
p11243
aVpauar
p11244
aVunpotected
p11245
aVbishoya
p11246
aVkatsena
p11247
aVcox
p11248
aVtkte
p11249
aVboiar
p11250
aVchecking
p11251
aVnirontok
p11252
aVkhuala
p11253
aVcira
p11254
aVchaiclam
p11255
aVseftil
p11256
aVkhhai
p11257
aVkirai
p11258
aVkhachci
p11259
aVdeal
p11260
aVkehete
p11261
aVckear
p11262
aVthakbenato
p11263
aVchekeup
p11264
aVsaftyr
p11265
aVkwaice
p11266
aVcizer
p11267
aVchaccilm
p11268
aVboltacan
p11269
aVkodi
p11270
aVkhiclam
p11271
aVsc
p11272
aVnioyontron
p11273
aVkatok
p11274
aVrgnt
p11275
aVboltachi
p11276
aVtomay
p11277
aVkelea
p11278
aVniridik
p11279
aVsegroie
p11280
aVthajmke
p11281
aVcntineu
p11282
aVblhen
p11283
aVcheyecilo
p11284
aVcheyeci
p11285
aVkorecelam
p11286
aVkhepeli
p11287
aVparsoprotikiya
p11288
aVkhabay
p11289
aVkhaoici
p11290
aVniechilam
p11291
aVkhaoei
p11292
aVpaglime
p11293
aVporkonto
p11294
aVkosthokathinno
p11295
aVniceee
p11296
aVbondr
p11297
aVkhuuuub
p11298
aVlagiya
p11299
aVroses
p11300
aVcntrceptn
p11301
aVniyomitu
p11302
aVunsaid
p11303
aVporipekkhite
p11304
aVtrd
p11305
aVkhwate
p11306
aVbolana
p11307
aVlevonprgestarol
p11308
aVkoly
p11309
aVkhwassi
p11310
aVsadasrb
p11311
aVcaychena
p11312
aVseigulo
p11313
aVpalache
p11314
aVcorrectly
p11315
aVbrekage
p11316
aVkheleto
p11317
aVboyfriendar
p11318
aVkassilam
p11319
aVkprano
p11320
aVkuskita
p11321
aVpregnennt
p11322
aVthmay
p11323
aVnislam
p11324
aVpooramorsho
p11325
aVtoror
p11326
aVunprotectoin
p11327
aVkotikarok
p11328
aVnipapod
p11329
aVnoix
p11330
aVliygation
p11331
aVtorn
p11332
aVrokibbellagi
p11333
aVkheyasilm
p11334
aVpombobona
p11335
aVkinache
p11336
aVtkbe
p11337
aVkhac
p11338
aVbolselo
p11339
aVprios
p11340
aVcholee
p11341
aVpalbo
p11342
aVkokhun
p11343
aVcheyasi
p11344
aVsade
p11345
aVthakajay
p11346
aVtito
p11347
aVlevonorgesterol
p11348
aVlnter
p11349
aVnopril
p11350
aVbudar
p11351
aVkirec
p11352
aVkikorle
p11353
aVpawwa
p11354
aVniscinte
p11355
aVdecembarer
p11356
aVneyontron
p11357
aVkiliar
p11358
aVkokokn
p11359
aVkhetree
p11360
aVkhettire
p11361
aVbelood
p11362
aVsavdhanota
p11363
aVcpmlexity
p11364
aVtsomoy
p11365
aVlaboratory
p11366
aVchalte
p11367
aVkayachi
p11368
aVkhot
p11369
aVkhaiselam
p11370
aVkhaichhi
p11371
aVkorchii
p11372
aVrethm
p11373
aVsanta
p11374
aVkortecina
p11375
aVkayachilm
p11376
aVsbalok
p11377
aVpegnenet
p11378
aVkki
p11379
aVkhoweri
p11380
aVtrif
p11381
aVkkho
p11382
aVlabh
p11383
aVkkhnoi
p11384
aVchuschi
p11385
aVkawy
p11386
aVcusine
p11387
aVchalbe
p11388
aVsajiye
p11389
aVterminate
p11390
aVbososrer
p11391
aVkhaiar
p11392
aVpagrent
p11393
aVrethe
p11394
aVtokhnto
p11395
aVkhoyabo
p11396
aVkhaiay
p11397
aVpehle
p11398
aVboyssito
p11399
aVrp
p11400
aVtokhnki
p11401
aVkorke
p11402
aVniyachia
p11403
aVbrewn
p11404
aVpaccha
p11405
aVchascena
p11406
aVkayak
p11407
aVkayer
p11408
aVbochorei
p11409
aVkhailay
p11410
aVkhouy
p11411
aVdashar
p11412
aVsaidin
p11413
aVupokiarta
p11414
aVpagnence
p11415
aVkhouate
p11416
aVkhotirashongkha
p11417
aVkhailai
p11418
aVkhotokhon
p11419
aVkayne
p11420
aVcharie
p11421
aVkhoua
p11422
aVkhaiece
p11423
aVkoraita
p11424
aVpoll
p11425
aVkorhasa
p11426
aVbirrjo
p11427
aVbujanur
p11428
aVkkhawai
p11429
aVreaso
p11430
aVkhotekar
p11431
aVpreperation
p11432
aVchas
p11433
aVsayi
p11434
aVbirotikora
p11435
aVpaccia
p11436
aVbestotar
p11437
aVdatechilo
p11438
aVprill
p11439
aVtensionfree
p11440
aVlafe
p11441
aVbisar
p11442
aVsangamar
p11443
aVtobeto
p11444
aVporekolpina
p11445
aVkhaily
p11446
aVthakna
p11447
aVnirdeshika
p11448
aVkhaiaci
p11449
aVthreesome
p11450
aVretained
p11451
aVcindom
p11452
aVthakx
p11453
aVnorixo
p11454
aVthooo
p11455
aVrohini
p11456
aVkhoiata
p11457
aVkhok
p11458
aVrse
p11459
aVkecui
p11460
aVparegnent
p11461
aVniruder
p11462
aVchaitecina
p11463
aVnorculate
p11464
aVbujtta
p11465
aVpasce
p11466
aVrcntly
p11467
aVkhoala
p11468
aVnishcoyota
p11469
aVpachee
p11470
aVpaichhi
p11471
aVpondhoti
p11472
aVkhkono
p11473
aVdcmdar
p11474
aVbohiragoto
p11475
aVbostasina
p11476
aVkhtete
p11477
aVchailew
p11478
aVrkhi
p11479
aVtleast
p11480
aVsahabus
p11481
aVunfortunet
p11482
aVniyecilo
p11483
aVpautasi
p11484
aVbeyr
p11485
aVdbukiye
p11486
aVreplye
p11487
aVchains
p11488
aVkoae
p11489
aVkirokm
p11490
aVcutti
p11491
aVutton
p11492
aVregulaar
p11493
aVkhoyata
p11494
aVchalader
p11495
aVnishchit
p11496
aVbujjci
p11497
aVciai
p11498
aVrokomom
p11499
aVtokhonii
p11500
aVpokkche
p11501
aVniuntron
p11502
aVkhoyaese
p11503
aVlingon
p11504
aVkawaicilm
p11505
aVchyna
p11506
aVkhoyachi
p11507
aVparboto
p11508
aVkorchs
p11509
aVsahetu
p11510
aVbeboha
p11511
aVnioma
p11512
aVpachanor
p11513
aVbory
p11514
aVbeyea
p11515
aVkhaiy
p11516
aVkholeo
p11517
aVreversed
p11518
aVniotonpoddete
p11519
aVlino
p11520
aVuporad
p11521
aVkhaitace
p11522
aVbrestfeeding
p11523
aVterporer
p11524
aVniyase
p11525
aVpregninchi
p11526
aVniito
p11527
aVkhaitm
p11528
aVsbe
p11529
aVkhoyere
p11530
aVporeii
p11531
aVkauyano
p11532
aVoyears
p11533
aVkhetrao
p11534
aVkhaasilo
p11535
aVkewe
p11536
aVkoreki
p11537
aVcomming
p11538
aVkhatun
p11539
aVkhawyai
p11540
aVkhysilam
p11541
aVnoreix
p11542
aVcomercial
p11543
aVnexte
p11544
aVdekhache
p11545
aVcalculatare
p11546
aVporcor
p11547
aVsekhettre
p11548
aVkorice
p11549
aVpaeye
p11550
aVkorarai
p11551
aVpelche
p11552
aVberotir
p11553
aVkenr
p11554
aVsamirul
p11555
aVtph
p11556
aVkarjokoritar
p11557
aVchinen
p11558
aVconsequences
p11559
aVdakhachii
p11560
aVkeon
p11561
aVnoropill
p11562
aVowshoth
p11563
aVsasseyst
p11564
aVkhawayse
p11565
aVsass
p11566
aVkondhom
p11567
aVkondam
p11568
aVlane
p11569
aVkoncive
p11570
aVrisc
p11571
aVliflet
p11572
aVcakre
p11573
aVberotikoron
p11574
aVkoratai
p11575
aVpechhete
p11576
aVligation
p11577
aVthatkena
p11578
aVneradok
p11579
aVkichunai
p11580
aVlakkhan
p11581
aVsaschi
p11582
aVnirabod
p11583
aVchileo
p11584
aVkeyechilam
p11585
aVkhayasas
p11586
aVkonrasi
p11587
aVdekaite
p11588
aVcontraceptd
p11589
aVkuci
p11590
aVnissikto
p11591
aVcontraceptic
p11592
aVsasce
p11593
aVsabdhaner
p11594
aVlokkn
p11595
aVkhatai
p11596
aVkhayanor
p11597
aVunwantedly
p11598
aVtoyjonea
p11599
aVneprox
p11600
aVporistitir
p11601
aVkeyeche
p11602
aVconterceptive
p11603
aVsaterday
p11604
aVkhayai
p11605
aVkompanir
p11606
aVutkristo
p11607
aVcomcept
p11608
aVcomboind
p11609
aVsalusion
p11610
aVcomband
p11611
aVrequst
p11612
aVcalled
p11613
aVcombained
p11614
aVultrasno
p11615
aVbhobe
p11616
aVthagbo
p11617
aVkhayay
p11618
aVdekhanota
p11619
aVberotikorom
p11620
aVkhawae
p11621
aVkotodn
p11622
aVbujhaye
p11623
aVchirokritoggho
p11624
aVkibria
p11625
aVcaccilm
p11626
aVnly
p11627
aVcaccu
p11628
aVkonokicu
p11629
aVketra
p11630
aVcaceena
p11631
aVkichhuchin
p11632
aVulpo
p11633
aVnorpull
p11634
aVulsar
p11635
aVkichhudin
p11636
aVsambobana
p11637
aVnorrpil
p11638
aVkarbe
p11639
aVrisx
p11640
aVrasshes
p11641
aVrithm
p11642
aVbyabohare
p11643
aVberoa
p11644
aVcondhom
p11645
aVkesue
p11646
aVbja
p11647
aVchissi
p11648
aVuddoger
p11649
aVnieychi
p11650
aVparsentg
p11651
aVcondum
p11652
aVnm
p11653
aVpojontoh
p11654
aVconfedenceal
p11655
aVbyra
p11656
aVporco
p11657
aVbollean
p11658
aVulllekh
p11659
aVpregnancies
p11660
aVpaita
p11661
aVchir
p11662
aVpreknet
p11663
aVnorpi
p11664
aVbomon
p11665
aVusekorte
p11666
aVbondhoo
p11667
aVsasta
p11668
aVtatek
p11669
aVcompny
p11670
aVdairect
p11671
aVberhoise
p11672
aVbaso
p11673
aVkondum
p11674
aVkarjokore
p11675
aVcainah
p11676
aVuchiit
p11677
aVkero
p11678
aVkarjokorita
p11679
aVkonotay
p11680
aVkoner
p11681
aVconbaind
p11682
aVpechanor
p11683
aVbosere
p11684
aVkonk
p11685
aVcahina
p11686
aVkarcha
p11687
aVkhawaice
p11688
aVconfom
p11689
aVpaipe
p11690
aVbibaha
p11691
aVchodlai
p11692
aVconfusing
p11693
aVkhawaita
p11694
aVbhujaichhi
p11695
aVkhawaiya
p11696
aVkongula
p11697
aVconcap
p11698
aVcaichina
p11699
aVconbon
p11700
aVkhawalai
p11701
aVpop
p11702
aVporamorsher
p11703
aVkhatm
p11704
aVrataer
p11705
aVthanxx
p11706
aVsachondo
p11707
aVrelativer
p11708
aVniyontrol
p11709
aVboyce
p11710
aVpregne
p11711
aVratea
p11712
aVkhyc
p11713
aVkheaye
p11714
aVcaras
p11715
aVseiti
p11716
aVurenal
p11717
aVbieer
p11718
aVporamoshe
p11719
aVkhaoyay
p11720
aVcooperative
p11721
aVkhaporer
p11722
aVkeyechilo
p11723
aVneyntron
p11724
aVnibr
p11725
aVusse
p11726
aVkostoh
p11727
aVkhychila
p11728
aVkhari
p11729
aVsaronaporno
p11730
aVpoorer
p11731
aVboloder
p11732
aVkorarpor
p11733
aVkorbor
p11734
aVkeyechilm
p11735
aVkhychen
p11736
aVkhychilm
p11737
aVnileiki
p11738
aVkhya
p11739
aVkorlr
p11740
aVcaschi
p11741
aVcascena
p11742
aVcocp
p11743
aVlojar
p11744
aVcasai
p11745
aVboloun
p11746
aVtraxil
p11747
aVcholat
p11748
aVdehar
p11749
aVkhekei
p11750
aVcholasa
p11751
aVkhaowayece
p11752
aVbtr
p11753
aVbleedling
p11754
aVktotuku
p11755
aVthahi
p11756
aVkheecilam
p11757
aVbhatora
p11758
aVniyontrok
p11759
aVpartec
p11760
aVpaspasi
p11761
aVtotpor
p11762
aVcareful
p11763
aVneuro
p11764
aVniela
p11765
aVkonsomo
p11766
aVporikorpona
p11767
aVnirbodh
p11768
aVkhaoyanur
p11769
aVoydin
p11770
aVkhayoa
p11771
aVkhapor
p11772
aVkorlae
p11773
aVlaka
p11774
aVlaxman
p11775
aVkotchi
p11776
aVnjection
p11777
aVkhayechilo
p11778
aVcanciv
p11779
aVresistry
p11780
aVchilama
p11781
aVcontreceptive
p11782
aVkowata
p11783
aVkowyar
p11784
aVsej
p11785
aVcolors
p11786
aVbolcho
p11787
aVcontreceptic
p11788
aVcontrastive
p11789
aVpathway
p11790
aVbsr
p11791
aVkhayecilo
p11792
aVratao
p11793
aVkhayiyechi
p11794
aVpacknet
p11795
aVkhaychi
p11796
aVdakhaysa
p11797
aVacsa
p11798
aVjoldy
p11799
aVathslo
p11800
aVsaner
p11801
aVbivinoo
p11802
aVvobisshoto
p11803
aVortejito
p11804
aVmarriade
p11805
aVmilamasa
p11806
aVstand
p11807
aVorthopedic
p11808
aVfaced
p11809
aVbizopat
p11810
aVavvas
p11811
aVanakta
p11812
aVbirze
p11813
aVnarale
p11814
aVanswes
p11815
aVorater
p11816
aVnarer
p11817
aVmundu
p11818
aVpositivepositive
p11819
aVoai
p11820
aVhastha
p11821
aVscreenshoot
p11822
aVesthae
p11823
aVatkeo
p11824
aVsquirt
p11825
aVjonoshokti
p11826
aVbizla
p11827
aVstaie
p11828
aVsrmity
p11829
aVettadi
p11830
aVhastomoytun
p11831
aVgurson
p11832
aVanswa
p11833
aVshoje
p11834
aVjaitachi
p11835
aVstaitto
p11836
aVfeaucter
p11837
aVpoton
p11838
aVbitorar
p11839
aVkeuke
p11840
aVetokkhon
p11841
aVkhuchkgano
p11842
aVatirikta
p11843
aVchsleder
p11844
aVbisiye
p11845
aVprptikar
p11846
aVstaittokal
p11847
aVhastomutun
p11848
aVortejona
p11849
aVspsealist
p11850
aVshapnodosh
p11851
aVstatement
p11852
aVkibvabe
p11853
aVvob
p11854
aVnicar
p11855
aVreproduct
p11856
aVbrh
p11857
aVrefarance
p11858
aVhasib
p11859
aVoffices
p11860
aVguralir
p11861
aVjonmeche
p11862
aVondokosta
p11863
aVhasthamouthon
p11864
aVesthir
p11865
aVbisal
p11866
aVbizzopatke
p11867
aVjakee
p11868
aVpyospermia
p11869
aVbirzol
p11870
aVkorchhe
p11871
aVhatacola
p11872
aVfapping
p11873
aVpyni
p11874
aVfarhan
p11875
aVmeytun
p11876
aVshomosshai
p11877
aVzintex
p11878
aVjonmanor
p11879
aVhasthomoithon
p11880
aVpanista
p11881
aVshomadha
p11882
aVabonh
p11883
aVpanishta
p11884
aVauthority
p11885
aVjakho
p11886
aVkhycyce
p11887
aVkhuchke
p11888
aVamnku
p11889
aVjakhn
p11890
aVshomoyei
p11891
aVpanisher
p11892
aVprakritic
p11893
aVkhwabo
p11894
aVkhacchilm
p11895
aVbesekhon
p11896
aVitaddi
p11897
aVbeshey
p11898
aVetaka
p11899
aVdkla
p11900
aVkuph
p11901
aVdoirgo
p11902
aVchokkhe
p11903
aVkostor
p11904
aVdokana
p11905
aVdkhieci
p11906
aVguum
p11907
aVatkeye
p11908
aVbujhale
p11909
aVondokus
p11910
aVmarlam
p11911
aVberto
p11912
aVsxe
p11913
aVfatey
p11914
aVmartei
p11915
aVuparar
p11916
aVssmc
p11917
aVfalanur
p11918
aVsusttota
p11919
aVdkeci
p11920
aVoekdin
p11921
aVchorionic
p11922
aVandakosh
p11923
aVjaat
p11924
aVpaynay
p11925
aVmarege
p11926
aVbishoik
p11927
aVprrocur
p11928
aVreplky
p11929
aVmidium
p11930
aVavareg
p11931
aVdm
p11932
aVupjukto
p11933
aVbistariro
p11934
aVnaraynganj
p11935
aVfatena
p11936
aVatokkon
p11937
aVprukito
p11938
aVprakar
p11939
aVkhur
p11940
aVchokone
p11941
aVlevocarnitine
p11942
aVpannis
p11943
aVhastomaihun
p11944
aVexictment
p11945
aVjabee
p11946
aVmartam
p11947
aVbiw
p11948
aVhastomitun
p11949
aVauga
p11950
aVbesro
p11951
aVupoboz
p11952
aVdacale
p11953
aVsporshei
p11954
aVdkhano
p11955
aVspotahe
p11956
aVmasculine
p11957
aVoroi
p11958
aVswopnodosh
p11959
aVssex
p11960
aVbondhusorup
p11961
aVmarsi
p11962
aVmarine
p11963
aVandar
p11964
aVplesse
p11965
aVisthaei
p11966
aVothee
p11967
aVamrboys
p11968
aVjonaago
p11969
aVjonnou
p11970
aVswopno
p11971
aVjaiii
p11972
aVspnodos
p11973
aVprtibar
p11974
aVdjafshar
p11975
aVdactarra
p11976
aVcustomer
p11977
aVanssar
p11978
aVandrocrinology
p11979
aVchprosin
p11980
aVmarottok
p11981
aVrobarter
p11982
aVshoktoh
p11983
aVkibae
p11984
aVothke
p11985
aVchrae
p11986
aVsampor
p11987
aVhastomoython
p11988
aVprokare
p11989
aVnittonoybitik
p11990
aVhastamoithonno
p11991
aVnitabl
p11992
aVfarmar
p11993
aVpatala
p11994
aVothbe
p11995
aVauot
p11996
aVfeature
p11997
aVspotaha
p11998
aVkortechaile
p11999
aVabonge
p12000
aVchowdhuri
p12001
aVmared
p12002
aVmareage
p12003
aVdkanor
p12004
aVshokthi
p12005
aVfalio
p12006
aVkutuni
p12007
aVreplied
p12008
aVbujban
p12009
aVmtamti
p12010
aVjonaaga
p12011
aVchotokal
p12012
aVshantii
p12013
aVananto
p12014
aVkostay
p12015
aVbeshikhn
p12016
aVprakkritik
p12017
aVkiamar
p12018
aVtimax
p12019
aVatua
p12020
aVcutho
p12021
aVkhraya
p12022
aVshoktisali
p12023
aVupoi
p12024
aVbondhuder
p12025
aVshomar
p12026
aVhastomoitun
p12027
aVmijar
p12028
aVmeyedher
p12029
aVssvabik
p12030
aVkunti
p12031
aVsokttir
p12032
aVbridde
p12033
aVhochtho
p12034
aVjihad
p12035
aVzani
p12036
aVongshotir
p12037
aVduijona
p12038
aVthirst
p12039
aVjax
p12040
aVutasa
p12041
aVhochto
p12042
aVnocturnal
p12043
aVobhosto
p12044
aVthitha
p12045
aVshavabbik
p12046
aVpdle
p12047
aVutay
p12048
aVekbarer
p12049
aVdudur
p12050
aVlagna
p12051
aVpalabona
p12052
aVjauwar
p12053
aVhoctamuthun
p12054
aVekdhoroner
p12055
aVarjodi
p12056
aVbigganik
p12057
aVpunish
p12058
aVpunray
p12059
aVarostovit
p12060
aVuro
p12061
aVasachi
p12062
aVdukbe
p12063
aVpuray
p12064
aVbidde
p12065
aVmujhe
p12066
aVoso
p12067
aVoslilota
p12068
aVpakle
p12069
aVkharona
p12070
aVartery
p12071
aVpartnar
p12072
aVbsur
p12073
aVcoll
p12074
aVmatga
p12075
aVlahhok
p12076
aVvim
p12077
aVobostan
p12078
aVjietow
p12079
aVpuprapuri
p12080
aVjaykanp
p12081
aVkharai
p12082
aVarostub
p12083
aVeitaki
p12084
aVsariririk
p12085
aVpde
p12086
aVkhaoti
p12087
aVpalayle
p12088
aVmastrubate
p12089
aVmastrbation
p12090
aVpalayna
p12091
aVhaese
p12092
aVachon
p12093
aVmastrabution
p12094
aVdrut
p12095
aVharbar
p12096
aVpodhartho
p12097
aVaputi
p12098
aVdrueto
p12099
aVjascena
p12100
aVdrouto
p12101
aVsunley
p12102
aVrosalo
p12103
aVjarsi
p12104
aVrekeci
p12105
aVcotto
p12106
aVphysicap
p12107
aVobostye
p12108
aVpodhtuti
p12109
aVoshostikor
p12110
aVporysy
p12111
aVviscousity
p12112
aVviscid
p12113
aVstsnd
p12114
aVzakir
p12115
aVprosabeo
p12116
aVmasturbating
p12117
aVviroto
p12118
aVpalan
p12119
aVjinise
p12120
aVbijpat
p12121
aVcorveranes
p12122
aVcosclatar
p12123
aVbijre
p12124
aVmasturbates
p12125
aVosobiday
p12126
aVmuhirte
p12127
aVneyomitoo
p12128
aVduar
p12129
aVstuden
p12130
aVpalanor
p12131
aVkhese
p12132
aVpalar
p12133
aVbhangto
p12134
aVsargery
p12135
aVmasturbad
p12136
aVjatache
p12137
aVpdci
p12138
aVkhenchi
p12139
aVostirota
p12140
aVbroblen
p12141
aVaccaa
p12142
aVphilippines
p12143
aVdurha
p12144
aVhandelling
p12145
aVshejonnoamar
p12146
aVbrrizzopath
p12147
aVbibaheto
p12148
aVosotti
p12149
aVpotuna
p12150
aVbibahitio
p12151
aVhandleing
p12152
aVeaita
p12153
aVpurusanggo
p12154
aVconai
p12155
aVmaton
p12156
aVbibahote
p12157
aVprbta
p12158
aVbhugci
p12159
aVjenechhi
p12160
aVnimontron
p12161
aVbhugchen
p12162
aVjena
p12163
aVeater
p12164
aVeatey
p12165
aVdyficatio
p12166
aVasheci
p12167
aVdyfaction
p12168
aVhamdarder
p12169
aVoboidho
p12170
aVtheg
p12171
aVborkorbo
p12172
aVsmomy
p12173
aVborjopot
p12174
aVashan
p12175
aVbrshikkon
p12176
aVkorum
p12177
aVcondoom
p12178
aVososthikor
p12179
aVmausterbate
p12180
aVpuroshanger
p12181
aVhanddeling
p12182
aVnme
p12183
aVhandealing
p12184
aVlasa
p12185
aVsukhe
p12186
aVbhuksi
p12187
aVdurto
p12188
aVjhere
p12189
aVhamdat
p12190
aVpursango
p12191
aVdyes
p12192
aVonijaye
p12193
aVcondyloma
p12194
aVneyontrona
p12195
aVmaydr
p12196
aVthekya
p12197
aVcomea
p12198
aVjhulite
p12199
aVasas
p12200
aVthattho
p12201
aVsmosa
p12202
aVosodow
p12203
aVsmll
p12204
aVbichane
p12205
aVbicher
p12206
aVpurushnr
p12207
aVphelce
p12208
aVthia
p12209
aVsmoshai
p12210
aVporupurno
p12211
aVjeglo
p12212
aVborokorar
p12213
aVsugession
p12214
aVpakche
p12215
aVsojug
p12216
aVhalim
p12217
aVpurushungo
p12218
aVpurusotter
p12219
aVefeckt
p12220
aVbichanate
p12221
aVcomer
p12222
aVlalcha
p12223
aVpurnotripti
p12224
aVshele
p12225
aVebang
p12226
aVbhoye
p12227
aVnky
p12228
aVsukte
p12229
aVbibecona
p12230
aVmatitya
p12231
aVpurushanger
p12232
aVhandwark
p12233
aVsujest
p12234
aVzate
p12235
aVpuroser
p12236
aVacena
p12237
aVbholun
p12238
aVvigorex
p12239
aVmaythun
p12240
aVsokele
p12241
aVmathun
p12242
aVkhatta
p12243
aVmaytun
p12244
aVcommente
p12245
aVphole
p12246
aVecjon
p12247
aVlall
p12248
aVprorirodh
p12249
aVmasterbuation
p12250
aVjarnaied
p12251
aVsunnate
p12252
aVdorci
p12253
aVnomor
p12254
aVaobsostai
p12255
aVchutu
p12256
aVdorbollo
p12257
aVdorboll
p12258
aVthrke
p12259
aVastheno
p12260
aVasthenospermia
p12261
aVotana
p12262
aVbirojopat
p12263
aVerar
p12264
aVjoinal
p12265
aVvlobashte
p12266
aVmuaterbrade
p12267
aVjoinango
p12268
aVcuda
p12269
aVbiroktobod
p12270
aVanuvuto
p12271
aVmereci
p12272
aVyupai
p12273
aVlengota
p12274
aVniyace
p12275
aVlengar
p12276
aVtshole
p12277
aVaondo
p12278
aVkhore
p12279
aVsuppramorsho
p12280
aVptidn
p12281
aVsohora
p12282
aVobvosto
p12283
aVshobde
p12284
aVsawabasar
p12285
aVuapi
p12286
aVbirjopot
p12287
aVcrieme
p12288
aVdorke
p12289
aVcigassar
p12290
aVasu
p12291
aVvivin
p12292
aVcristal
p12293
aVbexi
p12294
aVporisi
p12295
aVapaka
p12296
aVsuraho
p12297
aVbirjupat
p12298
aVbirjyo
p12299
aVkoreyiio
p12300
aVkhonu
p12301
aVcia
p12302
aVsaxa
p12303
aVbexter
p12304
aVjangia
p12305
aVnathink
p12306
aVpanesh
p12307
aVlafato
p12308
aVnomozoospermia
p12309
aVprasharb
p12310
aVshoge
p12311
aVatahar
p12312
aVsoliler
p12313
aVosabavik
p12314
aVdomadhan
p12315
aVporisromei
p12316
aVshohan
p12317
aVplis
p12318
aVpaytay
p12319
aVsolison
p12320
aVshohobar
p12321
aVposhraber
p12322
aVjalawpora
p12323
aVsangame
p12324
aVculkhai
p12325
aVbiryapat
p12326
aVculki
p12327
aVpanisa
p12328
aVsteif
p12329
aVbirzapat
p12330
aVjokkhn
p12331
aVthaklya
p12332
aVreoport
p12333
aVmerodondu
p12334
aVjoke
p12335
aVvlon
p12336
aVosctho
p12337
aVbiropat
p12338
aVshodor
p12339
aVdonobad
p12340
aVporikhao
p12341
aVdonnonad
p12342
aVbirotho
p12343
aVertadi
p12344
aVpyci
p12345
aVchuner
p12346
aVdonnobaad
p12347
aVprnsbno
p12348
aVdonkeslee
p12349
a.