(lp0
V\u0985\u09a4\u098f\u09ac\u000a
p1
aV\u0985\u09a5\u099a\u000a
p2
aV\u0985\u09a5\u09ac\u09be\u000a
p3
aV\u0985\u09a8\u09c1\u09af\u09be\u09af\u09bc\u09c0\u000a
p4
aV\u0985\u09a8\u09c7\u0995\u000a
p5
aV\u0985\u09a8\u09c7\u0995\u09c7\u000a
p6
aV\u0985\u09a8\u09c7\u0995\u09c7\u0987\u000a
p7
aV\u0985\u09a8\u09cd\u09a4\u09a4\u000a
p8
aV\u0985\u09a8\u09cd\u09af\u000a
p9
aV\u0985\u09ac\u09a7\u09bf\u000a
p10
aV\u0985\u09ac\u09b6\u09cd\u09af\u000a
p11
aV\u0985\u09b0\u09cd\u09a5\u09be\u09a4\u000a
p12
aV\u0986\u0987\u000a
p13
aV\u0986\u0997\u09be\u09ae\u09c0\u000a
p14
aV\u0986\u0997\u09c7\u000a
p15
aV\u0986\u0997\u09c7\u0987\u000a
p16
aV\u0986\u099b\u09c7\u000a
p17
aV\u0986\u099c\u000a
p18
aV\u0986\u09a6\u09cd\u09af\u09ad\u09be\u0997\u09c7\u000a
p19
aV\u0986\u09aa\u09a8\u09be\u09b0\u000a
p20
aV\u0986\u09aa\u09a8\u09bf\u000a
p21
aV\u0986\u09ac\u09be\u09b0\u000a
p22
aV\u0986\u09ae\u09b0\u09be\u000a
p23
aV\u0986\u09ae\u09be\u0995\u09c7\u000a
p24
aV\u0986\u09ae\u09be\u09a6\u09c7\u09b0\u000a
p25
aV\u0986\u09ae\u09be\u09b0\u000a
p26
aV\u0986\u09ae\u09bf\u000a
p27
aV\u0986\u09b0\u000a
p28
aV\u0986\u09b0\u0993\u000a
p29
aV\u0987\u000a
p30
aV\u0987\u09a4\u09cd\u09af\u09be\u09a6\u09bf\u000a
p31
aV\u0987\u09b9\u09be\u000a
p32
aV\u0989\u099a\u09bf\u09a4\u000a
p33
aV\u0989\u09a4\u09cd\u09a4\u09b0\u000a
p34
aV\u0989\u09a8\u09bf\u000a
p35
aV\u0989\u09aa\u09b0\u000a
p36
aV\u0989\u09aa\u09b0\u09c7\u000a
p37
aV\u098f\u000a
p38
aV\u098f\u0981\u09a6\u09c7\u09b0\u000a
p39
aV\u098f\u0981\u09b0\u09be\u000a
p40
aV\u098f\u0987\u000a
p41
aV\u098f\u0995\u0987\u000a
p42
aV\u098f\u0995\u099f\u09bf\u000a
p43
aV\u098f\u0995\u09ac\u09be\u09b0\u000a
p44
aV\u098f\u0995\u09c7\u000a
p45
aV\u098f\u0995\u09cd\u000a
p46
aV\u098f\u0996\u09a8\u000a
p47
aV\u098f\u0996\u09a8\u0993\u000a
p48
aV\u098f\u0996\u09be\u09a8\u09c7\u000a
p49
aV\u098f\u0996\u09be\u09a8\u09c7\u0987\u000a
p50
aV\u098f\u099f\u09be\u000a
p51
aV\u098f\u099f\u09be\u0987\u000a
p52
aV\u098f\u099f\u09bf\u000a
p53
aV\u098f\u09a4\u000a
p54
aV\u098f\u09a4\u099f\u09be\u0987\u000a
p55
aV\u098f\u09a4\u09c7\u000a
p56
aV\u098f\u09a6\u09c7\u09b0\u000a
p57
aV\u098f\u09ac\u000a
p58
aV\u098f\u09ac\u0982\u000a
p59
aV\u098f\u09ac\u09be\u09b0\u000a
p60
aV\u098f\u09ae\u09a8\u000a
p61
aV\u098f\u09ae\u09a8\u0995\u09c0\u000a
p62
aV\u098f\u09ae\u09a8\u09bf\u000a
p63
aV\u098f\u09b0\u000a
p64
aV\u098f\u09b0\u09be\u000a
p65
aV\u098f\u09b2\u000a
p66
aV\u098f\u09b8\u000a
p67
aV\u098f\u09b8\u09c7\u000a
p68
aV\u0990\u000a
p69
aV\u0993\u000a
p70
aV\u0993\u0981\u09a6\u09c7\u09b0\u000a
p71
aV\u0993\u0981\u09b0\u000a
p72
aV\u0993\u0981\u09b0\u09be\u000a
p73
aV\u0993\u0987\u000a
p74
aV\u0993\u0995\u09c7\u000a
p75
aV\u0993\u0996\u09be\u09a8\u09c7\u000a
p76
aV\u0993\u09a6\u09c7\u09b0\u000a
p77
aV\u0993\u09b0\u000a
p78
aV\u0993\u09b0\u09be\u000a
p79
aV\u0995\u0996\u09a8\u0993\u000a
p80
aV\u0995\u09a4\u000a
p81
aV\u0995\u09ac\u09c7\u000a
p82
aV\u0995\u09ae\u09a8\u09c7\u000a
p83
aV\u0995\u09af\u09bc\u09c7\u0995\u000a
p84
aV\u0995\u09af\u09bc\u09c7\u0995\u099f\u09bf\u000a
p85
aV\u0995\u09b0\u099b\u09c7\u000a
p86
aV\u0995\u09b0\u099b\u09c7\u09a8\u000a
p87
aV\u0995\u09b0\u09a4\u09c7\u000a
p88
aV\u0995\u09b0\u09ac\u09c7\u000a
p89
aV\u0995\u09b0\u09ac\u09c7\u09a8\u000a
p90
aV\u0995\u09b0\u09b2\u09c7\u000a
p91
aV\u0995\u09b0\u09b2\u09c7\u09a8\u000a
p92
aV\u0995\u09b0\u09be\u000a
p93
aV\u0995\u09b0\u09be\u0987\u000a
p94
aV\u0995\u09b0\u09be\u09af\u09bc\u000a
p95
aV\u0995\u09b0\u09be\u09b0\u000a
p96
aV\u0995\u09b0\u09bf\u000a
p97
aV\u0995\u09b0\u09bf\u09a4\u09c7\u000a
p98
aV\u0995\u09b0\u09bf\u09af\u09bc\u09be\u000a
p99
aV\u0995\u09b0\u09bf\u09af\u09bc\u09c7\u000a
p100
aV\u0995\u09b0\u09c7\u000a
p101
aV\u0995\u09b0\u09c7\u0987\u000a
p102
aV\u0995\u09b0\u09c7\u099b\u09bf\u09b2\u09c7\u09a8\u000a
p103
aV\u0995\u09b0\u09c7\u099b\u09c7\u000a
p104
aV\u0995\u09b0\u09c7\u099b\u09c7\u09a8\u000a
p105
aV\u0995\u09b0\u09c7\u09a8\u000a
p106
aV\u0995\u09be\u0989\u0995\u09c7\u000a
p107
aV\u0995\u09be\u099b\u000a
p108
aV\u0995\u09be\u099b\u09c7\u000a
p109
aV\u0995\u09be\u099c\u000a
p110
aV\u0995\u09be\u099c\u09c7\u000a
p111
aV\u0995\u09be\u09b0\u0993\u000a
p112
aV\u0995\u09be\u09b0\u09a3\u000a
p113
aV\u0995\u09bf\u000a
p114
aV\u0995\u09bf\u0982\u09ac\u09be\u000a
p115
aV\u0995\u09bf\u099b\u09c1\u000a
p116
aV\u0995\u09bf\u099b\u09c1\u0987\u000a
p117
aV\u0995\u09bf\u09a8\u09cd\u09a4\u09c1\u000a
p118
aV\u0995\u09c0\u000a
p119
aV\u0995\u09c7\u000a
p120
aV\u0995\u09c7\u0989\u000a
p121
aV\u0995\u09c7\u0989\u0987\u000a
p122
aV\u0995\u09c7\u0996\u09be\u000a
p123
aV\u0995\u09c7\u09a8\u000a
p124
aV\u0995\u09cb\u099f\u09bf\u000a
p125
aV\u0995\u09cb\u09a8\u000a
p126
aV\u0995\u09cb\u09a8\u0993\u000a
p127
aV\u0995\u09cb\u09a8\u09cb\u000a
p128
aV\u0995\u09cd\u09b7\u09c7\u09a4\u09cd\u09b0\u09c7\u000a
p129
aV\u0995\u09df\u09c7\u0995\u000a
p130
aV\u0996\u09c1\u09ac\u000a
p131
aV\u0997\u09bf\u09af\u09bc\u09c7\u000a
p132
aV\u0997\u09bf\u09af\u09bc\u09c7\u099b\u09c7\u000a
p133
aV\u0997\u09bf\u09df\u09c7\u000a
p134
aV\u0997\u09c1\u09b2\u09bf\u000a
p135
aV\u0997\u09c7\u099b\u09c7\u000a
p136
aV\u0997\u09c7\u09b2\u000a
p137
aV\u0997\u09c7\u09b2\u09c7\u000a
p138
aV\u0997\u09cb\u099f\u09be\u000a
p139
aV\u099a\u09b2\u09c7\u000a
p140
aV\u099a\u09be\u09a8\u000a
p141
aV\u099a\u09be\u09af\u09bc\u000a
p142
aV\u099a\u09be\u09b0\u000a
p143
aV\u099a\u09be\u09b2\u09c1\u000a
p144
aV\u099a\u09c7\u09af\u09bc\u09c7\u000a
p145
aV\u099a\u09c7\u09b7\u09cd\u099f\u09be\u000a
p146
aV\u099b\u09be\u09a1\u09bc\u09be\u000a
p147
aV\u099b\u09be\u09a1\u09bc\u09be\u0993\u000a
p148
aV\u099b\u09bf\u09b2\u000a
p149
aV\u099b\u09bf\u09b2\u09c7\u09a8\u000a
p150
aV\u099c\u09a8\u000a
p151
aV\u099c\u09a8\u0995\u09c7\u000a
p152
aV\u099c\u09a8\u09c7\u09b0\u000a
p153
aV\u099c\u09a8\u09cd\u09af\u000a
p154
aV\u099c\u09a8\u09cd\u09af\u0993\u099c\u09c7\u000a
p155
aV\u099c\u09be\u09a8\u09a4\u09c7\u000a
p156
aV\u099c\u09be\u09a8\u09be\u000a
p157
aV\u099c\u09be\u09a8\u09be\u09a8\u09cb\u000a
p158
aV\u099c\u09be\u09a8\u09be\u09af\u09bc\u000a
p159
aV\u099c\u09be\u09a8\u09bf\u09af\u09bc\u09c7\u000a
p160
aV\u099c\u09be\u09a8\u09bf\u09af\u09bc\u09c7\u099b\u09c7\u000a
p161
aV\u099c\u09c7\u000a
p162
aV\u099c\u09cd\u09a8\u099c\u09a8\u000a
p163
aV\u099f\u09bf\u000a
p164
aV\u09a0\u09bf\u0995\u000a
p165
aV\u09a4\u0996\u09a8\u000a
p166
aV\u09a4\u09a4\u000a
p167
aV\u09a4\u09a5\u09be\u000a
p168
aV\u09a4\u09ac\u09c1\u000a
p169
aV\u09a4\u09ac\u09c7\u000a
p170
aV\u09a4\u09be\u000a
p171
aV\u09a4\u09be\u0981\u0995\u09c7\u000a
p172
aV\u09a4\u09be\u0981\u09a6\u09c7\u09b0\u000a
p173
aV\u09a4\u09be\u0981\u09b0\u000a
p174
aV\u09a4\u09be\u0981\u09b0\u09be\u000a
p175
aV\u09a4\u09be\u0981\u09be\u09b9\u09be\u09b0\u09be\u000a
p176
aV\u09a4\u09be\u0987\u000a
p177
aV\u09a4\u09be\u0993\u000a
p178
aV\u09a4\u09be\u0995\u09c7\u000a
p179
aV\u09a4\u09be\u09a4\u09c7\u000a
p180
aV\u09a4\u09be\u09a6\u09c7\u09b0\u000a
p181
aV\u09a4\u09be\u09b0\u000a
p182
aV\u09a4\u09be\u09b0\u09aa\u09b0\u000a
p183
aV\u09a4\u09be\u09b0\u09be\u000a
p184
aV\u09a4\u09be\u09b0\u09c8\u000a
p185
aV\u09a4\u09be\u09b9\u09b2\u09c7\u000a
p186
aV\u09a4\u09be\u09b9\u09be\u000a
p187
aV\u09a4\u09be\u09b9\u09be\u09a4\u09c7\u000a
p188
aV\u09a4\u09be\u09b9\u09be\u09b0\u000a
p189
aV\u09a4\u09bf\u09a8\u0990\u000a
p190
aV\u09a4\u09bf\u09a8\u09bf\u000a
p191
aV\u09a4\u09bf\u09a8\u09bf\u0993\u000a
p192
aV\u09a4\u09c1\u09ae\u09bf\u000a
p193
aV\u09a4\u09c1\u09b2\u09c7\u000a
p194
aV\u09a4\u09c7\u09ae\u09a8\u000a
p195
aV\u09a4\u09cb\u000a
p196
aV\u09a4\u09cb\u09ae\u09be\u09b0\u000a
p197
aV\u09a5\u09be\u0995\u09ac\u09c7\u000a
p198
aV\u09a5\u09be\u0995\u09ac\u09c7\u09a8\u000a
p199
aV\u09a5\u09be\u0995\u09be\u000a
p200
aV\u09a5\u09be\u0995\u09be\u09af\u09bc\u000a
p201
aV\u09a5\u09be\u0995\u09c7\u000a
p202
aV\u09a5\u09be\u0995\u09c7\u09a8\u000a
p203
aV\u09a5\u09c7\u0995\u09c7\u000a
p204
aV\u09a5\u09c7\u0995\u09c7\u0987\u000a
p205
aV\u09a5\u09c7\u0995\u09c7\u0993\u000a
p206
aV\u09a6\u09bf\u0995\u09c7\u000a
p207
aV\u09a6\u09bf\u09a4\u09c7\u000a
p208
aV\u09a6\u09bf\u09a8\u000a
p209
aV\u09a6\u09bf\u09af\u09bc\u09c7\u000a
p210
aV\u09a6\u09bf\u09af\u09bc\u09c7\u099b\u09c7\u000a
p211
aV\u09a6\u09bf\u09af\u09bc\u09c7\u099b\u09c7\u09a8\u000a
p212
aV\u09a6\u09bf\u09b2\u09c7\u09a8\u000a
p213
aV\u09a6\u09c1\u000a
p214
aV\u09a6\u09c1\u0987\u000a
p215
aV\u09a6\u09c1\u099f\u09bf\u000a
p216
aV\u09a6\u09c1\u099f\u09cb\u000a
p217
aV\u09a6\u09c7\u0993\u09af\u09bc\u09be\u000a
p218
aV\u09a6\u09c7\u0993\u09af\u09bc\u09be\u09b0\u000a
p219
aV\u09a6\u09c7\u0993\u09df\u09be\u000a
p220
aV\u09a6\u09c7\u0996\u09a4\u09c7\u000a
p221
aV\u09a6\u09c7\u0996\u09be\u000a
p222
aV\u09a6\u09c7\u0996\u09c7\u000a
p223
aV\u09a6\u09c7\u09a8\u000a
p224
aV\u09a6\u09c7\u09af\u09bc\u000a
p225
aV\u09a6\u09cd\u09ac\u09be\u09b0\u09be\u000a
p226
aV\u09a7\u09b0\u09be\u000a
p227
aV\u09a7\u09b0\u09c7\u000a
p228
aV\u09a7\u09be\u09ae\u09be\u09b0\u000a
p229
aV\u09a8\u09a4\u09c1\u09a8\u000a
p230
aV\u09a8\u09af\u09bc\u000a
p231
aV\u09a8\u09be\u000a
p232
aV\u09a8\u09be\u0987\u000a
p233
aV\u09a8\u09be\u0995\u09bf\u000a
p234
aV\u09a8\u09be\u0997\u09be\u09a6\u000a
p235
aV\u09a8\u09be\u09a8\u09be\u000a
p236
aV\u09a8\u09bf\u099c\u09c7\u000a
p237
aV\u09a8\u09bf\u099c\u09c7\u0987\u000a
p238
aV\u09a8\u09bf\u099c\u09c7\u09a6\u09c7\u09b0\u000a
p239
aV\u09a8\u09bf\u099c\u09c7\u09b0\u000a
p240
aV\u09a8\u09bf\u09a4\u09c7\u000a
p241
aV\u09a8\u09bf\u09af\u09bc\u09c7\u000a
p242
aV\u09a8\u09bf\u09df\u09c7\u000a
p243
aV\u09a8\u09c7\u0987\u000a
p244
aV\u09a8\u09c7\u0993\u09af\u09bc\u09be\u000a
p245
aV\u09a8\u09c7\u0993\u09af\u09bc\u09be\u09b0\u000a
p246
aV\u09a8\u09c7\u0993\u09df\u09be\u000a
p247
aV\u09a8\u09df\u000a
p248
aV\u09aa\u0995\u09cd\u09b7\u09c7\u000a
p249
aV\u09aa\u09b0\u000a
p250
aV\u09aa\u09b0\u09c7\u000a
p251
aV\u09aa\u09b0\u09c7\u0987\u000a
p252
aV\u09aa\u09b0\u09c7\u0993\u000a
p253
aV\u09aa\u09b0\u09cd\u09af\u09a8\u09cd\u09a4\u000a
p254
aV\u09aa\u09be\u0993\u09af\u09bc\u09be\u000a
p255
aV\u09aa\u09be\u099a\u000a
p256
aV\u09aa\u09be\u09b0\u09bf\u000a
p257
aV\u09aa\u09be\u09b0\u09c7\u000a
p258
aV\u09aa\u09be\u09b0\u09c7\u09a8\u000a
p259
aV\u09aa\u09bf\u000a
p260
aV\u09aa\u09c7\u09af\u09bc\u09c7\u000a
p261
aV\u09aa\u09c7\u09df\u09cd\u09b0\u09cd\u000a
p262
aV\u09aa\u09cd\u09b0\u09a4\u09bf\u000a
p263
aV\u09aa\u09cd\u09b0\u09a5\u09ae\u000a
p264
aV\u09aa\u09cd\u09b0\u09ad\u09c3\u09a4\u09bf\u000a
p265
aV\u09aa\u09cd\u09b0\u09af\u09a8\u09cd\u09a4\u000a
p266
aV\u09aa\u09cd\u09b0\u09be\u09a5\u09ae\u09bf\u0995\u000a
p267
aV\u09aa\u09cd\u09b0\u09be\u09af\u09bc\u000a
p268
aV\u09aa\u09cd\u09b0\u09be\u09df\u000a
p269
aV\u09ab\u09b2\u09c7\u000a
p270
aV\u09ab\u09bf\u09b0\u09c7\u000a
p271
aV\u09ab\u09c7\u09b0\u000a
p272
aV\u09ac\u0995\u09cd\u09a4\u09ac\u09cd\u09af\u000a
p273
aV\u09ac\u09a6\u09b2\u09c7\u000a
p274
aV\u09ac\u09a8\u000a
p275
aV\u09ac\u09b0\u0982\u000a
p276
aV\u09ac\u09b2\u09a4\u09c7\u000a
p277
aV\u09ac\u09b2\u09b2\u000a
p278
aV\u09ac\u09b2\u09b2\u09c7\u09a8\u000a
p279
aV\u09ac\u09b2\u09be\u000a
p280
aV\u09ac\u09b2\u09c7\u000a
p281
aV\u09ac\u09b2\u09c7\u099b\u09c7\u09a8\u000a
p282
aV\u09ac\u09b2\u09c7\u09a8\u000a
p283
aV\u09ac\u09b8\u09c7\u000a
p284
aV\u09ac\u09b9\u09c1\u000a
p285
aV\u09ac\u09be\u000a
p286
aV\u09ac\u09be\u09a6\u09c7\u000a
p287
aV\u09ac\u09be\u09b0\u000a
p288
aV\u09ac\u09bf\u000a
p289
aV\u09ac\u09bf\u09a8\u09be\u000a
p290
aV\u09ac\u09bf\u09ad\u09bf\u09a8\u09cd\u09a8\u000a
p291
aV\u09ac\u09bf\u09b6\u09c7\u09b7\u000a
p292
aV\u09ac\u09bf\u09b7\u09af\u09bc\u099f\u09bf\u000a
p293
aV\u09ac\u09c7\u09b6\u000a
p294
aV\u09ac\u09c7\u09b6\u09bf\u000a
p295
aV\u09ac\u09cd\u09af\u09ac\u09b9\u09be\u09b0\u000a
p296
aV\u09ac\u09cd\u09af\u09be\u09aa\u09be\u09b0\u09c7\u000a
p297
aV\u09ad\u09be\u09ac\u09c7\u000a
p298
aV\u09ad\u09be\u09ac\u09c7\u0987\u000a
p299
aV\u09ae\u09a4\u09cb\u000a
p300
aV\u09ae\u09a4\u09cb\u0987\u000a
p301
aV\u09ae\u09a7\u09cd\u09af\u09ad\u09be\u0997\u09c7\u000a
p302
aV\u09ae\u09a7\u09cd\u09af\u09c7\u000a
p303
aV\u09ae\u09a7\u09cd\u09af\u09c7\u0987\u000a
p304
aV\u09ae\u09a7\u09cd\u09af\u09c7\u0993\u000a
p305
aV\u09ae\u09a8\u09c7\u000a
p306
aV\u09ae\u09be\u09a4\u09cd\u09b0\u000a
p307
aV\u09ae\u09be\u09a7\u09cd\u09af\u09ae\u09c7\u000a
p308
aV\u09ae\u09cb\u099f\u000a
p309
aV\u09ae\u09cb\u099f\u09c7\u0987\u000a
p310
aV\u09af\u0996\u09a8\u000a
p311
aV\u09af\u09a4\u000a
p312
aV\u09af\u09a4\u099f\u09be\u000a
p313
aV\u09af\u09a5\u09c7\u09b7\u09cd\u099f\u000a
p314
aV\u09af\u09a6\u09bf\u000a
p315
aV\u09af\u09a6\u09bf\u0993\u000a
p316
aV\u09af\u09be\u000a
p317
aV\u09af\u09be\u0981\u09b0\u000a
p318
aV\u09af\u09be\u0981\u09b0\u09be\u000a
p319
aV\u09af\u09be\u0993\u09af\u09bc\u09be\u000a
p320
aV\u09af\u09be\u0993\u09af\u09bc\u09be\u09b0\u000a
p321
aV\u09af\u09be\u0993\u09df\u09be\u000a
p322
aV\u09af\u09be\u0995\u09c7\u000a
p323
aV\u09af\u09be\u099a\u09cd\u099b\u09c7\u000a
p324
aV\u09af\u09be\u09a4\u09c7\u000a
p325
aV\u09af\u09be\u09a6\u09c7\u09b0\u000a
p326
aV\u09af\u09be\u09a8\u000a
p327
aV\u09af\u09be\u09ac\u09c7\u000a
p328
aV\u09af\u09be\u09af\u09bc\u000a
p329
aV\u09af\u09be\u09b0\u000a
p330
aV\u09af\u09be\u09b0\u09be\u000a
p331
aV\u09af\u09bf\u09a8\u09bf\u000a
p332
aV\u09af\u09c7\u000a
p333
aV\u09af\u09c7\u0996\u09be\u09a8\u09c7\u000a
p334
aV\u09af\u09c7\u09a4\u09c7\u000a
p335
aV\u09af\u09c7\u09a8\u000a
p336
aV\u09af\u09c7\u09ae\u09a8\u000a
p337
aV\u09b0\u000a
p338
aV\u09b0\u0995\u09ae\u000a
p339
aV\u09b0\u09af\u09bc\u09c7\u099b\u09c7\u000a
p340
aV\u09b0\u09be\u0996\u09be\u000a
p341
aV\u09b0\u09c7\u0996\u09c7\u000a
p342
aV\u09b2\u0995\u09cd\u09b7\u000a
p343
aV\u09b6\u09c1\u09a7\u09c1\u000a
p344
aV\u09b6\u09c1\u09b0\u09c1\u000a
p345
aV\u09b8\u0999\u09cd\u0997\u09c7\u000a
p346
aV\u09b8\u0999\u09cd\u0997\u09c7\u0993\u000a
p347
aV\u09b8\u09ac\u000a
p348
aV\u09b8\u09ac\u09be\u09b0\u000a
p349
aV\u09b8\u09ae\u09b8\u09cd\u09a4\u000a
p350
aV\u09b8\u09ae\u09cd\u09aa\u09cd\u09b0\u09a4\u09bf\u000a
p351
aV\u09b8\u09b9\u000a
p352
aV\u09b8\u09b9\u09bf\u09a4\u000a
p353
aV\u09b8\u09be\u09a7\u09be\u09b0\u09a3\u000a
p354
aV\u09b8\u09be\u09ae\u09a8\u09c7\u000a
p355
aV\u09b8\u09bf\u000a
p356
aV\u09b8\u09c1\u09a4\u09b0\u09be\u0982\u000a
p357
aV\u09b8\u09c7\u000a
p358
aV\u09b8\u09c7\u0987\u000a
p359
aV\u09b8\u09c7\u0996\u09be\u09a8\u000a
p360
aV\u09b8\u09c7\u0996\u09be\u09a8\u09c7\u000a
p361
aV\u09b8\u09c7\u099f\u09be\u000a
p362
aV\u09b8\u09c7\u099f\u09be\u0987\u000a
p363
aV\u09b8\u09c7\u099f\u09be\u0993\u000a
p364
aV\u09b8\u09c7\u099f\u09bf\u000a
p365
aV\u09b8\u09cd\u09aa\u09b7\u09cd\u099f\u000a
p366
aV\u09b8\u09cd\u09ac\u09af\u09bc\u0982\u000a
p367
aV\u09b9\u0987\u09a4\u09c7\u000a
p368
aV\u09b9\u0987\u09ac\u09c7\u000a
p369
aV\u09b9\u0987\u09af\u09bc\u09be\u000a
p370
aV\u09b9\u0993\u09af\u09bc\u09be\u000a
p371
aV\u09b9\u0993\u09af\u09bc\u09be\u09af\u09bc\u000a
p372
aV\u09b9\u0993\u09af\u09bc\u09be\u09b0\u000a
p373
aV\u09b9\u099a\u09cd\u099b\u09c7\u000a
p374
aV\u09b9\u09a4\u000a
p375
aV\u09b9\u09a4\u09c7\u000a
p376
aV\u09b9\u09a4\u09c7\u0987\u000a
p377
aV\u09b9\u09a8\u000a
p378
aV\u09b9\u09ac\u09c7\u000a
p379
aV\u09b9\u09ac\u09c7\u09a8\u000a
p380
aV\u09b9\u09af\u09bc\u000a
p381
aV\u09b9\u09af\u09bc\u09a4\u09cb\u000a
p382
aV\u09b9\u09af\u09bc\u09a8\u09bf\u000a
p383
aV\u09b9\u09af\u09bc\u09c7\u000a
p384
aV\u09b9\u09af\u09bc\u09c7\u0987\u000a
p385
aV\u09b9\u09af\u09bc\u09c7\u099b\u09bf\u09b2\u000a
p386
aV\u09b9\u09af\u09bc\u09c7\u099b\u09c7\u000a
p387
aV\u09b9\u09af\u09bc\u09c7\u099b\u09c7\u09a8\u000a
p388
aV\u09b9\u09b2\u000a
p389
aV\u09b9\u09b2\u09c7\u000a
p390
aV\u09b9\u09b2\u09c7\u0987\u000a
p391
aV\u09b9\u09b2\u09c7\u0993\u000a
p392
aV\u09b9\u09b2\u09cb\u000a
p393
aV\u09b9\u09be\u099c\u09be\u09b0\u000a
p394
aV\u09b9\u09bf\u09b8\u09be\u09ac\u09c7\u000a
p395
aV\u09b9\u09c8\u09b2\u09c7\u000a
p396
aV\u09b9\u09cb\u0995\u000a
p397
aV\u09b9\u09df
p398
a.