(lp0
Vhare
p1
aVhasbend
p2
aVhashi
p3
aVmisscarrage
p4
aVsumthing
p5
aVmiskarege
p6
aVups
p7
aVmisdiagnosis
p8
aVmisconception
p9
aVmiscarried
p10
aVchildbirth
p11
aVhavin
p12
aVmisabortion
p13
aVmirza
p14
aVazithromycin
p15
aVchilam
p16
aVhazy
p17
aVazyth
p18
aVazythromycin
p19
aVhber
p20
aVhbsag
p21
aVbaad
p22
aVsuiting
p23
aVshellfish
p24
aVshempo
p25
aVwast
p26
aVavr
p27
aVmihad
p28
aVsuna
p29
aVmitali
p30
aVshahidullah
p31
aVmotility
p32
aVmosty
p33
aVmorrow
p34
aVmorening
p35
aVchore
p36
aVmont
p37
aVweaks
p38
aVaueo
p39
aVmonsters
p40
aVshaped
p41
aVshapla
p42
aVaunty
p43
aVshariful
p44
aVsharifulislam
p45
aVautism
p46
aVmodhe
p47
aVhar
p48
aVchoke
p49
aVhart
p50
aVavar
p51
aVmocrogest
p52
aVmmkit
p53
aVaveraging
p54
aVaverege
p55
aVmita
p56
aVhd
p57
aVsuite
p58
aVmicarage
p59
aVcheak
p60
aVmedincide
p61
aVchawanprash
p62
aVwarned
p63
aVmedically
p64
aVhlo
p65
aVchassi
p66
aVhoaca
p67
aVshomoy
p68
aVbanker
p69
aVmeats
p70
aVmeasurment
p71
aVhoasa
p72
aVhobae
p73
aVsubidha
p74
aVursocol
p75
aVsubida
p76
aVchanch
p77
aVchamber
p78
aVshortness
p79
aVhod
p80
aVhoeni
p81
aVmathai
p82
aVchae
p83
aVchaccilam
p84
aVsucces
p85
aVshobshomy
p86
aVmeffin
p87
aVmefloquine
p88
aVheartburn
p89
aVbacchar
p90
aVheavyness
p91
aVmethotrexute
p92
aVmethotrax
p93
aVhectic
p94
aVhedhchec
p95
aVsuggesions
p96
aVcherishing
p97
aVhelo
p98
aVsuger
p99
aVsuffuring
p100
aVmotorcycle
p101
aVhemorrhoids
p102
aVsudu
p103
aVmentel
p104
aVsho
p105
aVbaibir
p106
aVbaire
p107
aVuric
p108
aVheroes
p109
aVmendelip
p110
aVmench
p111
aVurinated
p112
aVsud
p113
aVmeh
p114
aVmentionable
p115
aVcesjaration
p116
aVshahanara
p117
aVmoveablet
p118
aVgien
p119
aVgine
p120
aVgiyachilam
p121
aVseemingly
p122
aVaromatase
p123
aVcng
p124
aVunwillingness
p125
aVglade
p126
aVsymbols
p127
aVkakon
p128
aVnomossar
p129
aVnoe
p130
aVglucometer
p131
aVnoakhali
p132
aVsejar
p133
aVsx
p134
aVniya
p135
aVarthopedix
p136
aVartical
p137
aVnitro
p138
aVclothing
p139
aVnitay
p140
aVnita
p141
aVasaca
p142
aVgnrh
p143
aVgice
p144
aVnirapad
p145
aVnormoozospeemia
p146
aVsedin
p147
aVobstructing
p148
aVgestatioal
p149
aVobservation
p150
aVapprx
p151
aVobostay
p152
aVappu
p153
aVseasonal
p154
aVaprill
p155
aVgestinal
p156
aVcombine
p157
aVobastay
p158
aVob
p159
aVgestranol
p160
aVgestrinol
p161
aVseat
p162
aVnvr
p163
aVunsuccessful
p164
aVunterus
p165
aVnutritional
p166
aVnuchal
p167
aVnoy
p168
aVghumai
p169
aVaricthomicine
p170
aVnousea
p171
aVsedil
p172
aVghumate
p173
aVasalamualaikum
p174
aVgods
p175
aVnije
p176
aVgunte
p177
aVassalamuwaalikum
p178
aVassalamuwalaikum
p179
aVnaomi
p180
aVnani
p181
aVsurovi
p182
aVgv
p183
aVciprofloxacin
p184
aVgyinee
p185
aVnagative
p186
aVnaam
p187
aVaste
p188
aVmyths
p189
aVcin
p190
aVsurjer
p191
aVmyometriun
p192
aVgynarcologist
p193
aVmutch
p194
aVgyne
p195
aVmunth
p196
aVci
p197
aVgynocholist
p198
aVmu
p199
aVmow
p200
aVhaa
p201
aVsushi
p202
aVguidence
p203
aVguestion
p204
aVassalam
p205
aVaschay
p206
aVnightmarish
p207
aVsweets
p208
aVgoodness
p209
aVnichi
p210
aVnicher
p211
aVnicchi
p212
aVgrams
p213
aVnf
p214
aVneyom
p215
aVsenegra
p216
aVnerve
p217
aVsupp
p218
aVneomonia
p219
aVgraphics
p220
aVneg
p221
aVneate
p222
aVweekwise
p223
aVnearer
p224
aVsuspension
p225
aVsuspecting
p226
aVnaw
p227
aVasolei
p228
aVnaturaly
p229
aVgtt
p230
aVnational
p231
aVgrandmothers
p232
aVunprotectd
p233
aVhoiye
p234
aVmasters
p235
aVkotho
p236
aVvip
p237
aVipec
p238
aVspine
p239
aVir
p240
aVbuja
p241
aVkoriyeche
p242
aVkoriaci
p243
aVsokale
p244
aVkorer
p245
aVspicy
p246
aVkoreci
p247
aVkorease
p248
aVblighted
p249
aVbtw
p250
aVsoliusoin
p251
aVbst
p252
aVsollution
p253
aVkoratae
p254
aVkoranor
p255
aVkorani
p256
aVkorale
p257
aVblocks
p258
aVkonno
p259
aVvariation
p260
aVkothodin
p261
aVbloodish
p262
aVintimated
p263
aVkoti
p264
aVbiology
p265
aVsmoked
p266
aVsmth
p267
aVbiparietal
p268
aVinstructions
p269
aVvalued
p270
aVsmtimes
p271
aVinsurance
p272
aVlamp
p273
aVvisible
p274
aVbirthing
p275
aVlagbay
p276
aVintaken
p277
aVsmtyms
p278
aVsneeze
p279
aVlacking
p280
aVkubi
p281
aVintaking
p282
aVkrse
p283
aVspledges
p284
aVkrechi
p285
aVbujtaci
p286
aVinterfoce
p287
aVkotota
p288
aVkotokhani
p289
aVintestinal
p290
aVistab
p291
aVvaried
p292
aVbrodil
p293
aVkhokon
p294
aVjohn
p295
aVjoi
p296
aVkhn
p297
aVkheyche
p298
aVsowellknown
p299
aVbollo
p300
aVjoining
p301
aVjokhn
p302
aVsonologist
p303
aVjorayor
p304
aVkhaowa
p305
aVkhaoay
p306
aVjov
p307
aVjpg
p308
aVbould
p309
aVkhalato
p310
aVkhala
p311
aVjustify
p312
aVjustyfy
p313
aVveshe
p314
aVkey
p315
aVbooster
p316
aVkachey
p317
aVkaegal
p318
aVjnne
p319
aVbolechen
p320
aVbran
p321
aVbread
p322
aVkoibar
p323
aVkof
p324
aVkoek
p325
aVjamalpur
p326
aVjanale
p327
aVbreech
p328
aVknot
p329
aVdekay
p330
aVbreathless
p331
aVjanuarey
p332
aVklinic
p333
aVbreath
p334
aVinstruc
p335
aVsomoi
p336
aVkilled
p337
aVbojai
p338
aVjbe
p339
aVbojha
p340
aVjehetu
p341
aVjeidin
p342
aVvator
p343
aVvdrl
p344
aVsondhan
p345
aVkicks
p346
aVbreaghting
p347
aVsone
p348
aVjave
p349
aVcervis
p350
aVleads
p351
aVvisibly
p352
aVhoyer
p353
aVshute
p354
aVcbc
p355
aVbecz
p356
aVcautions
p357
aVhsbc
p358
aVhsh
p359
aVstitch
p360
aVhurm
p361
aVhurry
p362
aVsiddiqas
p363
aVbegening
p364
aVhvg
p365
aVsiemen
p366
aVhvs
p367
aVvoulation
p368
aVcarrots
p369
aVbehaving
p370
aVsth
p371
aVhyperthyriod
p372
aVluxmi
p373
aVvomite
p374
aVbeklo
p375
aVlungs
p376
aVlumbar
p377
aVw
p378
aVcareful
p379
aVhoyechi
p380
aVwahat
p381
aVholeo
p382
aVhomogenous
p383
aVhone
p384
aVshowes
p385
aVshubida
p386
aVhorlics
p387
aVcere
p388
aVward
p389
aVbby
p390
aVhoschi
p391
aVhospitale
p392
aVhossena
p393
aVhouer
p394
aVwalked
p395
aVhove
p396
aVbean
p397
aVcel
p398
aVmaria
p399
aVmargarine
p400
aVmara
p401
aVhowover
p402
aVceftriaxone
p403
aVmanei
p404
aVmanaging
p405
aVwaif
p406
aVshusoma
p407
aVstethoscoe
p408
aVsilo
p409
aVbelittle
p410
aVvai
p411
aVindeccision
p412
aVcalcultor
p413
aVvisualized
p414
aVcalc
p415
aVinduced
p416
aVinducer
p417
aVletrozole
p418
aVcaile
p419
aVinformative
p420
aVlesson
p421
aVcaesarian
p422
aVcaesarean
p423
aVlerozole
p424
aVinforme
p425
aVcabergolin
p426
aVvisral
p427
aVinhaltion
p428
aVinhibitor
p429
aVlem
p430
aVinsignificant
p431
aVinsolin
p432
aVbutter
p433
aVbiginning
p434
aVbutt
p435
aVvague
p436
aVlik
p437
aVlil
p438
aVlinctus
p439
aVhysteriosalgopinography
p440
aVhysteroscopy
p441
aVhystrosalgophinography
p442
aVibne
p443
aVsincerly
p444
aVbelp
p445
aVsteer
p446
aVidentified
p447
aVigg
p448
aVlordosis
p449
aVsirina
p450
aVsissure
p451
aVbikolango
p452
aVigm
p453
aVcanned
p454
aVlogical
p455
aVvoltalin
p456
aVincharge
p457
aVberabe
p458
aVliterary
p459
aVberece
p460
aVberger
p461
aVberry
p462
aVlining
p463
aVvol
p464
aVincompetency
p465
aVimheller
p466
aVgenitals
p467
aVnoone
p468
aVsacralization
p469
aVunavoidable
p470
aVcounts
p471
aVtraditions
p472
aVplane
p473
aVeseche
p474
aVtwins
p475
aVpusation
p476
aVesomiplazole
p477
aVetate
p478
aVtranslucency
p479
aVpioneerinsurance
p480
aVpioneer
p481
aVrunninig
p482
aVethinor
p483
aVcoughing
p484
aVworm
p485
aVpuzzle
p486
aVevry
p487
aVtransverse
p488
aVpurbe
p489
aVcorresponds
p490
aVentacid
p491
aVthyroids
p492
aVporobortite
p493
aVporiman
p494
aVdiyece
p495
aVproyojon
p496
aVporbe
p497
aVporamorsho
p498
aVroxadex
p499
aVponent
p500
aVendometric
p501
aVretry
p502
aVpublished
p503
aVwory
p504
aVakhi
p505
aVenergy
p506
aVumbilical
p507
aVcoxsbazar
p508
aVthyroxin
p509
aVenlighted
p510
aVacitic
p511
aVpld
p512
aVdirector
p513
aVdater
p514
aVquarreling
p515
aVrestless
p516
aVtheres
p517
aVtheorem
p518
aVsack
p519
aVdud
p520
aVrestart
p521
aVfabu
p522
aVquotes
p523
aVperhaps
p524
aVperaonally
p525
aVperacitamol
p526
aVthalassaemia
p527
aVthakei
p528
aValtrasonograpgh
p529
aVdidnot
p530
aVfallen
p531
aVfam
p532
aValws
p533
aVcontraindicated
p534
aVpes
p535
aVryt
p536
aVtheses
p537
aVexperiences
p538
aVpiclvip
p539
aVthirteen
p540
aValigozoospermia
p541
aVphytolacca
p542
aVcorr
p543
aVphysicl
p544
aVthirst
p545
aVexcercises
p546
aVdilen
p547
aVporpor
p548
aVdigital
p549
aVzabe
p550
aVrestrict
p551
aVphonetics
p552
aVallrdy
p553
aVthicker
p554
aVconvincing
p555
aVpgt
p556
aVpgegnency
p557
aVpeyesilam
p558
aVexercize
p559
aVtours
p560
aVposative
p561
aVtoungue
p562
aVeaght
p563
aVdribble
p564
aVyaba
p565
aVribs
p566
aVpresher
p567
aVeay
p568
aVtyms
p569
aVcytomegalo
p570
aVukunnasok
p571
aVdowns
p572
aVproductivity
p573
aVculter
p574
aVrib
p575
aVprenatal
p576
aVebola
p577
aVpregnyl
p578
aVpregnet
p579
aVpregneny
p580
aVecosprin
p581
aVpressier
p582
aVaffact
p583
aVprev
p584
aVaeroplane
p585
aVds
p586
aVduibar
p587
aVadulthood
p588
aVues
p589
aVadv
p590
aVyeard
p591
aVcurvical
p592
aVadvances
p593
aVdupastron
p594
aVecpected
p595
aVproble
p596
aVdydrogesterone
p597
aVyea
p598
aVtorch
p599
aVdyer
p600
aVtool
p601
aVdysentry
p602
aVadvising
p603
aVprobs
p604
aVae
p605
aVadnexa
p606
aVfamilies
p607
aVafternooon
p608
aVpregnenchi
p609
aVpreagnency
p610
aVprd
p611
aVembroyo
p612
aVdaibatc
p613
aVrh
p614
aVahead
p615
aVembryonic
p616
aVpragnanci
p617
aVpracticed
p618
aVdoppler
p619
aVdaid
p620
aVtik
p621
aVulta
p622
aVemenil
p623
aVcrearly
p624
aVtwitches
p625
aVrooftop
p626
aVultrasonic
p627
aVpositively
p628
aVpreferred
p629
aVdaer
p630
aVeltroxin
p631
aVagn
p632
aVaftr
p633
aVecv
p634
aVcz
p635
aVtnjected
p636
aVczr
p637
aVwy
p638
aVpregnand
p639
aVroksana
p640
aVpregnan
p641
aVpregnenci
p642
aVpregnace
p643
aVpreglyn
p644
aVpregent
p645
aVdoubtful
p646
aVdabur
p647
aVuld
p648
aVwssbd
p649
aVpregencey
p650
aVtycil
p651
aVeligable
p652
aVdoute
p653
aVfamous
p654
aVadopte
p655
aVdayis
p656
aVsanitation
p657
aVdeputy
p658
aVdepressing
p659
aVconcive
p660
aVfooding
p661
aVanxiously
p662
aVaborting
p663
aVtaxing
p664
aVdentist
p665
aVfollowup
p666
aVdenies
p667
aVforte
p668
aVourselves
p669
aVforth
p670
aVconceiveing
p671
aVosubidha
p672
aVorthopedic
p673
aVuninterruptedly
p674
aVreferred
p675
aVdelineated
p676
aVreferance
p677
aVap
p678
aVtbs
p679
aVfoetus
p680
aVdetermine
p681
aVpagnenc
p682
aVpagnant
p683
aVzillron
p684
aVflight
p685
aVrecovers
p686
aVconfined
p687
aVdesition
p688
aVama
p689
aVrepitedly
p690
aVconeived
p691
aVantacid
p692
aVflugal
p693
aVantenatal
p694
aVoxygen
p695
aVanteriorly
p696
aVdera
p697
aVfnds
p698
aVsample
p699
aVovuclon
p700
aVoxytocin
p701
aVcomputer
p702
aVapai
p703
aVziska
p704
aVoigula
p705
aVohhh
p706
aVzoleta
p707
aVtamarind
p708
aVfulltime
p709
aVofice
p710
aVtamanna
p711
aVreleased
p712
aVdekhajay
p713
aVscope
p714
aVaamar
p715
aVgallbladder
p716
aVtakemedicine
p717
aVappoint
p718
aVoedema
p719
aVremaining
p720
aVdeini
p721
aVgche
p722
aVapprehensive
p723
aVodema
p724
aVwheeler
p725
aVdefined
p726
aVdeki
p727
aVregularu
p728
aVfractures
p729
aVoradexon
p730
aVfrd
p731
aVfreaked
p732
aVoportunity
p733
aVcomplicating
p734
aVcomplicacy
p735
aVfrnd
p736
aVcomplecation
p737
aVoperating
p738
aVooccured
p739
aVrefusing
p740
aVfruite
p741
aVonaly
p742
aVapollo
p743
aVoligohydromios
p744
aVfruitful
p745
aVscheduled
p746
aVdeleveryed
p747
aVapparent
p748
aVfrustrate
p749
aVconformation
p750
aVpagnet
p751
aVfluctuated
p752
aVsalivates
p753
aVconsumption
p754
aVrascals
p755
aVtester
p756
aVdiagonestic
p757
aVterminated
p758
aVparvin
p759
aVamoxicillin
p760
aVamoxicilline
p761
aVfelling
p762
aVpata
p763
aVresourceful
p764
aVreson
p765
aVdiabetis
p766
aVfemoral
p767
aVsalma
p768
aVtrimesterae
p769
aVfermacy
p770
aVferocit
p771
aVparce
p772
aVanalyais
p773
aVresone
p774
aVparasites
p775
aVpatent
p776
aVtesty
p777
aVcontraceptic
p778
aVpegnet
p779
aVpegned
p780
aVfan
p781
aVamasha
p782
aVfarmechi
p783
aVamcast
p784
aVdice
p785
aVfatal
p786
aVunderstnd
p787
aVfatima
p788
aVsadness
p789
aVrakha
p790
aVtuna
p791
aVwitch
p792
aVfavor
p793
aVcontenue
p794
aVdea
p795
aVfax
p796
aVfbs
p797
aVtetul
p798
aVpaperchemical
p799
aVparfait
p800
aVfl
p801
aVdhorte
p802
aVrecommendations
p803
aVfinacial
p804
aVpaltan
p805
aVpalta
p806
aVfigures
p807
aVabsolutly
p808
aVdexon
p809
aVpaoa
p810
aVfertisure
p811
aVrequires
p812
aVpantonix
p813
aVfertilize
p814
aVrecomended
p815
aVtrubel
p816
aVpajama
p817
aVdearmaya
p818
aVpangenesis
p819
aVtorment
p820
aVissu
p821
aVtorn
p822
aVinspect
p823
aVdegeas
p824
aVvalueable
p825
aVdekhassi
p826
aVinvitation
p827
aVdisappear
p828
aVdesplase
p829
aVbujhaben
p830
aVbujhano
p831
aVbujhtec
p832
aVtract
p833
aVdiya
p834
aVka
p835
aVjachy
p836
aVintra
p837
aVjabot
p838
aVcyclical
p839
aVinverted
p840
aVcyclist
p841
aVdekhiechi
p842
aVjoriu
p843
aVdanazol
p844
aVbreat
p845
aVtrio
p846
aVirregularities
p847
aVdischarging
p848
aVdimpling
p849
aVdefeacation
p850
aVintact
p851
aVjawar
p852
aVdealing
p853
aVdiscomfort
p854
aVdori
p855
aVvegainal
p856
aVvegain
p857
aVintarvesical
p858
aVdries
p859
aVbumpy
p860
aVdeliberately
p861
aVjayej
p862
aVtranslation
p863
aVirrerularly
p864
aVdangerus
p865
aVspicily
p866
aVtreatement
p867
aVtwise
p868
aVvanish
p869
aVdrastically
p870
aVdeaths
p871
aVjasse
p872
aVdere
p873
aVjekono
p874
aVjoraiu
p875
aVcomforts
p876
aVtickness
p877
aVdudh
p878
aVchores
p879
aVfertil
p880
aVhairgrowth
p881
aVsurgeries
p882
aVfertilization
p883
aVgynocologist
p884
aVchulkani
p885
aVfexo
p886
aVgynecological
p887
aVfibro
p888
aVfibrocytic
p889
aVfihy
p890
aVfilmet
p891
aVgynacs
p892
aVflabby
p893
aVferma
p894
aVsurprising
p895
aVfemipill
p896
aVfemales
p897
aVuncontrollable
p898
aVextends
p899
aVextremeness
p900
aVheadacge
p901
aVthakay
p902
aVunderbust
p903
aVcontious
p904
aVundergarment
p905
aVhate
p906
aVfaty
p907
aVchmbr
p908
aVcontentiou
p909
aVtestosterone
p910
aVcholtey
p911
aVfelopian
p912
aVtendencies
p913
aVconform
p914
aVflubin
p915
aVfluclox
p916
aVcomperable
p917
aVunwilling
p918
aVtamoxifen
p919
aVghorowa
p920
aVfrustrates
p921
aVghau
p922
aVcomparetively
p923
aVtamlosin
p924
aVcolorless
p925
aVgeston
p926
aVtalcum
p927
aVcombinations
p928
aVgapes
p929
aVgaps
p930
aVgarlic
p931
aVcomplaning
p932
aVtanzim
p933
aVfrequenty
p934
aVtarget
p935
aVflucolx
p936
aVfluidish
p937
aVgrew
p938
aVflupentixol
p939
aVfole
p940
aVconclude
p941
aVgrainy
p942
aVcheese
p943
aVclit
p944
aVtay
p945
aVtate
p946
aVforever
p947
aVclosest
p948
aVcomsulted
p949
aVclotrimazol
p950
aVclotrimazole
p951
aVclo
p952
aVinfractions
p953
aVthickened
p954
aVexpanded
p955
aVtodays
p956
aVhysomide
p957
aVcrossed
p958
aVeki
p959
aVvaab
p960
aVelectrolysis
p961
aVhvy
p962
aVstiil
p963
aVtika
p964
aVstomachache
p965
aVutres
p966
aVutilization
p967
aVcausin
p968
aVhoyse
p969
aVhoynai
p970
aVculkaner
p971
aVtightness
p972
aVimidiately
p973
aVvaccines
p974
aVdufaston
p975
aVdurtion
p976
aVdusky
p977
aVcurious
p978
aVsristy
p979
aVsrup
p980
aVtooks
p981
aVinconvenience
p982
aVvaginosis
p983
aVcurd
p984
aVincidents
p985
aVvagainal
p986
aVeatching
p987
aVstaircase
p988
aVcandida
p989
aVstat
p990
aVtighten
p991
aVhoyche
p992
aVendocrine
p993
aVhober
p994
aVunclear
p995
aVthreading
p996
aVthorugh
p997
aVevidence
p998
aVcosting
p999
aVcosmetics
p1000
aVsubside
p1001
aVthm
p1002
aVexamined
p1003
aVchcklate
p1004
aVhetergenious
p1005
aVcorese
p1006
aVhes
p1007
aVexistent
p1008
aVusally
p1009
aVhoccha
p1010
aVhochse
p1011
aVunblock
p1012
aVcrave
p1013
aVendomentrial
p1014
aVhothat
p1015
aVhossa
p1016
aVendometril
p1017
aVendromatrosis
p1018
aVtachara
p1019
aVherey
p1020
aVholiday
p1021
aVcouses
p1022
aVhoite
p1023
aVhoilo
p1024
aVhoie
p1025
aVhoiche
p1026
aVepithelial
p1027
aVesheche
p1028
aVcertificate
p1029
aVkaowa
p1030
aVdekhachilo
p1031
aVshahnaj
p1032
aVbcome
p1033
aVprobulin
p1034
aVsamina
p1035
aVacctually
p1036
aVpaded
p1037
aVprlam
p1038
aVpalan
p1039
aVresponsible
p1040
aVvulva
p1041
aVank
p1042
aVmamoplasty
p1043
aVvul
p1044
aVmammography
p1045
aVpanadol
p1046
aVmammograms
p1047
aVpaced
p1048
aVanteflexed
p1049
aVrestricts
p1050
aVmasochistic
p1051
aVanyhow
p1052
aVoutline
p1053
aVadexae
p1054
aVovalution
p1055
aVproceeded
p1056
aVoverin
p1057
aVmatronidasol
p1058
aVmammogram
p1059
aVmaterial
p1060
aVmatai
p1061
aVovert
p1062
aVmastitis
p1063
aVbaterial
p1064
aVantibayotik
p1065
aVbathing
p1066
aVmassik
p1067
aVbasi
p1068
aVshootout
p1069
aVmaltiple
p1070
aVmajora
p1071
aVprioad
p1072
aVparticle
p1073
aVreacting
p1074
aVlnfo
p1075
aVprio
p1076
aVsizes
p1077
aVreaction
p1078
aVresend
p1079
aVskilled
p1080
aVprimulate
p1081
aVskins
p1082
aVsaggation
p1083
aVlh
p1084
aVpathogenesis
p1085
aVpathophysiology
p1086
aVlojjito
p1087
aVramdan
p1088
aVprioud
p1089
aVsist
p1090
aVmajmaj
p1091
aVmaintains
p1092
aVmailed
p1093
aVbegin
p1094
aVbegining
p1095
aVbegun
p1096
aVasacha
p1097
aVpancreatitis
p1098
aVsiginificantly
p1099
aVpap
p1100
aVvomitting
p1101
aVlukewarm
p1102
aVanaroxyl
p1103
aVaname
p1104
aVloses
p1105
aVlosectill
p1106
aVsilicon
p1107
aVotao
p1108
aVorgans
p1109
aVadenomyosis
p1110
aVmyimetrium
p1111
aVobaration
p1112
aVproto
p1113
aVsha
p1114
aVmovable
p1115
aVaproper
p1116
aVmontin
p1117
aVoccuring
p1118
aVseamen
p1119
aVapproaching
p1120
aVavail
p1121
aVwheather
p1122
aVodity
p1123
aVwheatish
p1124
aVmistakenly
p1125
aVmyotol
p1126
aVwen
p1127
aVnaavi
p1128
aVareola
p1129
aVniyomito
p1130
aVasea
p1131
aVnicer
p1132
aVaroud
p1133
aVashchilo
p1134
aVnense
p1135
aVprolong
p1136
aVohh
p1137
aVneither
p1138
aVserviceholder
p1139
aVprotima
p1140
aVproliferative
p1141
aVassalamualiykum
p1142
aVnovosta
p1143
aVnari
p1144
aVservix
p1145
aVnormes
p1146
aVappetite
p1147
aVpurposes
p1148
aVscissor
p1149
aVadditionally
p1150
aVbalo
p1151
aVbalode
p1152
aVmedroxyprgesterone
p1153
aVmeditation
p1154
aVopertions
p1155
aVmedici
p1156
aVmenopose
p1157
aVresumed
p1158
aVopokarita
p1159
aVprocessing
p1160
aVbanglay
p1161
aVapha
p1162
aVopt
p1163
aVqnty
p1164
aVanywhere
p1165
aVopinions
p1166
aVprimrose
p1167
aVmenstuation
p1168
aVshit
p1169
aVazilab
p1170
aVminora
p1171
aVminipil
p1172
aVmines
p1173
aVmifeston
p1174
aVmidcycle
p1175
aVmicroperforate
p1176
aVapnak
p1177
aVappe
p1178
aVmetro
p1179
aVmetal
p1180
aVribbed
p1181
aVscary
p1182
aVbacteria
p1183
aVbacterial
p1184
aVmenz
p1185
aVoitar
p1186
aVleucorrhoea
p1187
aVanemic
p1188
aVreasking
p1189
aVsaction
p1190
aVreenlargment
p1191
aVagei
p1192
aValum
p1193
aVsada
p1194
aVboob
p1195
aVpossiblity
p1196
aVrupture
p1197
aVsomadhan
p1198
aVpelvis
p1199
aVreoccuring
p1200
aVzimex
p1201
aVkrselam
p1202
aVreplacent
p1203
aVpelt
p1204
aVlaf
p1205
aVlagiechi
p1206
aVbliv
p1207
aVbolesilen
p1208
aVpelam
p1209
aVpinch
p1210
aVvesical
p1211
aVperinium
p1212
aValban
p1213
aValergy
p1214
aVkoraise
p1215
aVkoriyechi
p1216
aVzine
p1217
aVkoriyechilam
p1218
aVpoison
p1219
aVpoisonous
p1220
aVkhaoa
p1221
aVkorlen
p1222
aVsolving
p1223
aVphysiological
p1224
aVbirdem
p1225
aVpian
p1226
aVakhonk
p1227
aVrltn
p1228
aVkhassi
p1229
aVpersist
p1230
aValgin
p1231
aVblackout
p1232
aVrecurs
p1233
aVkomeche
p1234
aVpresently
p1235
aVprgence
p1236
aVrrgular
p1237
aVsmiling
p1238
aVprieod
p1239
aVsmells
p1240
aVpease
p1241
aVrepeatedly
p1242
aVpeachi
p1243
aVworsened
p1244
aVsomthing
p1245
aVpregneant
p1246
aVlenor
p1247
aVkidneys
p1248
aVpblm
p1249
aVlequiria
p1250
aVlessen
p1251
aVbhitore
p1252
aVkidding
p1253
aVkhono
p1254
aVbolecen
p1255
aVrecovering
p1256
aVakoe
p1257
aVpause
p1258
aVagers
p1259
aVpaulina
p1260
aVsonia
p1261
aVpeed
p1262
aVpeeing
p1263
aVkorch
p1264
aVpregnenet
p1265
aVpiriod
p1266
aVkemne
p1267
aVrefraining
p1268
aVbolese
p1269
aVlecture
p1270
aVleck
p1271
aVprei
p1272
aVsomavona
p1273
aVxo
p1274
aVsooner
p1275
aVadverse
p1276
aVlecturer
p1277
aVaa
p1278
aVabrod
p1279
aVkobe
p1280
aVtasty
p1281
aVdeficiency
p1282
aVoats
p1283
aVmenifestations
p1284
aVexcrement
p1285
aVfoof
p1286
aVfruites
p1287
aVchotobela
p1288
aVrush
p1289
aVallergan
p1290
aVbaare
p1291
aVhieght
p1292
aVbanate
p1293
aVsuperstition
p1294
aVharmed
p1295
aVpustigun
p1296
aVonujai
p1297
aVzinks
p1298
aVsugestion
p1299
aVmeta
p1300
aVkhule
p1301
aVspecifically
p1302
aVhormolead
p1303
aVhasanctg
p1304
aVcapacity
p1305
aVcitrus
p1306
aVguaranteed
p1307
aVcod
p1308
aVbeef
p1309
aVburger
p1310
aVintelligent
p1311
aVpangash
p1312
aVdetrimental
p1313
aVfet
p1314
aVinstitution
p1315
aVginetical
p1316
aVupakar
p1317
aVgrapefruit
p1318
aVcarbohydrates
p1319
aVcarbohydrate
p1320
aVlosse
p1321
aVlol
p1322
aVcapsules
p1323
aVflattened
p1324
aVbeans
p1325
aVdieating
p1326
aVkalory
p1327
aVsylheti
p1328
aVswimming
p1329
aVshuddho
p1330
aVvertigo
p1331
aVcira
p1332
aVweighted
p1333
aVlige
p1334
aVirons
p1335
aVjst
p1336
aVrecipe
p1337
aVskillness
p1338
aVfollowa
p1339
aVmulti
p1340
aVpowers
p1341
aVkhaoar
p1342
aVscratching
p1343
aVgmt
p1344
aVpromise
p1345
aVwounded
p1346
aVcoward
p1347
aVpour
p1348
aVarousal
p1349
aVsegolo
p1350
aVtahile
p1351
aVproshno
p1352
aVxd
p1353
aVgechi
p1354
aVtabelet
p1355
aVgels
p1356
aVcolud
p1357
aVcolors
p1358
aVsec
p1359
aVpopulation
p1360
aVtiems
p1361
aVobdhi
p1362
aVobdi
p1363
aVejaculating
p1364
aVeducational
p1365
aVnowdays
p1366
aVghum
p1367
aVplzzzzzzzzzz
p1368
aVporichoy
p1369
aVcowgirls
p1370
aVcolakalin
p1371
aVgently
p1372
aVtouches
p1373
aVarnob
p1374
aVggirlfriend
p1375
aVgirks
p1376
aVapproaches
p1377
aVageing
p1378
aVdormant
p1379
aVpicon
p1380
aVfunny
p1381
aVconsentrate
p1382
aVpants
p1383
aVpanic
p1384
aVpenitration
p1385
aVprices
p1386
aVfillings
p1387
aVpennis
p1388
aVfaking
p1389
aVpequ
p1390
aVdu
p1391
aVye
p1392
aVpagnency
p1393
aVproblematic
p1394
aVunexpectedly
p1395
aVrobin
p1396
aVcybersex
p1397
aVtenced
p1398
aVucit
p1399
aVparchi
p1400
aVfeared
p1401
aVdun
p1402
aVpauses
p1403
aVadvanced
p1404
aVpasses
p1405
aVdujoner
p1406
aVconsultancy
p1407
aVyakkkss
p1408
aVfellow
p1409
aVconstitute
p1410
aVcustom
p1411
aVcute
p1412
aVadventurous
p1413
aVfancied
p1414
aVcvs
p1415
aVyearsolddosex
p1416
aVameture
p1417
aVph
p1418
aVeaten
p1419
aVsamoy
p1420
aVaphrodisiacs
p1421
aVfrist
p1422
aVevacuated
p1423
aVfro
p1424
aVeurope
p1425
aVestrogen
p1426
aVpissed
p1427
aVsaved
p1428
aVerotic
p1429
aVcudn
p1430
aVentering
p1431
aVcouries
p1432
aVappeal
p1433
aVentered
p1434
aVfullfil
p1435
aVapplicable
p1436
aVtampons
p1437
aVrub
p1438
aVamke
p1439
aVorally
p1440
aVconduct
p1441
aVaffiliation
p1442
aVfnd
p1443
aVphils
p1444
aVoverview
p1445
aVtc
p1446
aVexitement
p1447
aVfounding
p1448
aVphool
p1449
aVphycal
p1450
aVexcruciating
p1451
aVforbid
p1452
aVdrawback
p1453
aVformat
p1454
aVexcitemnt
p1455
aVoralsex
p1456
aVexisted
p1457
aVartificial
p1458
aVkmn
p1459
aVcrim
p1460
aVhowagirlof
p1461
aVquesion
p1462
aVhoyasa
p1463
aVmanhood
p1464
aVboday
p1465
aVbocorer
p1466
aVshusto
p1467
aVcaution
p1468
aVhridoy
p1469
aVmariage
p1470
aVbefoe
p1471
aVva
p1472
aVraji
p1473
aVbelieves
p1474
aVlubrication
p1475
aVlubricate
p1476
aVdiban
p1477
aVrakin
p1478
aViba
p1479
aVsin
p1480
aVstimulating
p1481
aVdefecate
p1482
aVmarrage
p1483
aVmarriag
p1484
aVmeant
p1485
aVjeno
p1486
aVusable
p1487
aVjel
p1488
aVacen
p1489
aVshorisha
p1490
aVquack
p1491
aVhoby
p1492
aVdir
p1493
aVdinning
p1494
aVboje
p1495
aVmauritius
p1496
aVsomrtime
p1497
aVbroughdly
p1498
aVmasturvation
p1499
aVbasor
p1500
aVmastervation
p1501
aVmasterbed
p1502
aVbave
p1503
aVhopless
p1504
aVquation
p1505
aVignoring
p1506
aVhobby
p1507
aVbenifitial
p1508
aVvagaina
p1509
aVkoybar
p1510
aVkotow
p1511
aVintersted
p1512
aVsobai
p1513
aVintervals
p1514
aVintoo
p1515
aVvirgina
p1516
aVkothoy
p1517
aVblooding
p1518
aVdecread
p1519
aVbujhai
p1520
aVsofa
p1521
aVkorlay
p1522
aVdepending
p1523
aVbu
p1524
aVvangte
p1525
aVblod
p1526
aVdeparture
p1527
aVspice
p1528
aVvarginity
p1529
aVkoroniyo
p1530
aVdecline
p1531
aVbum
p1532
aVrectum
p1533
aVincest
p1534
aVinchs
p1535
aVdengoure
p1536
aVreajul
p1537
aVliked
p1538
aVvagiyna
p1539
aVbetterment
p1540
aVdhukei
p1541
aVdhiorjo
p1542
aVabruptly
p1543
aVlengthen
p1544
aVinput
p1545
aVinsides
p1546
aVinsidious
p1547
aVslipping
p1548
aVbigining
p1549
aVlanguages
p1550
aVbirjo
p1551
aVderive
p1552
aVderi
p1553
aVbiyeo
p1554
aVacay
p1555
aVbaranor
p1556
aVmater
p1557
aVblooded
p1558
aVmeyeke
p1559
aVditch
p1560
aVminit
p1561
aVsexulday
p1562
aVnarro
p1563
aVawkward
p1564
aVnarikel
p1565
aVditen
p1566
aVgustion
p1567
aVbowels
p1568
aVpurchased
p1569
aVassociated
p1570
aVses
p1571
aVnamaj
p1572
aVastroglide
p1573
aVsexes
p1574
aVavoiding
p1575
aVsexula
p1576
aVhabituated
p1577
aVprce
p1578
aVatraction
p1579
aVsoo
p1580
aVjhamela
p1581
aVjonnoo
p1582
aVsoulmate
p1583
aVdivorcee
p1584
aVsunflower
p1585
aVharmfu
p1586
aVsextual
p1587
aVjoy
p1588
aVmunira
p1589
aVreleive
p1590
aVsooo
p1591
aVboyosher
p1592
aVaching
p1593
aVshompurno
p1594
aVbarabo
p1595
aVcharacteristics
p1596
aVprosno
p1597
aVprotectn
p1598
aVhmm
p1599
aVcharte
p1600
aVkaror
p1601
aVkarbo
p1602
aVjhorna
p1603
aVclassmate
p1604
aVbanglai
p1605
aVverjin
p1606
aVhii
p1607
aVashamed
p1608
aVhabib
p1609
aVdaoughters
p1610
aVbahire
p1611
aVsustain
p1612
aVkeeper
p1613
aVkhon
p1614
aVrelationships
p1615
aVnderstand
p1616
aVretired
p1617
aVpurush
p1618
aVindicate
p1619
aVnorml
p1620
aVreseason
p1621
aVvalobasar
p1622
aVswoollen
p1623
aVlest
p1624
aVrussel
p1625
aVcalculated
p1626
aVdoctr
p1627
aVpregant
p1628
aVistarted
p1629
aVmrm
p1630
aVager
p1631
aVtt
p1632
aVdekhai
p1633
aValtrosonography
p1634
aVashayna
p1635
aValexide
p1636
aVprolactine
p1637
aVbloodpressure
p1638
aVleproscopy
p1639
aVruptured
p1640
aVconccp
p1641
aVconsultd
p1642
aVdegeneration
p1643
aVcotson
p1644
aVconfuse
p1645
aVay
p1646
aVhospitalized
p1647
aVuterous
p1648
aVcyctrate
p1649
aVovulet
p1650
aVpivmecillinam
p1651
aVtanks
p1652
aVsubserous
p1653
aVshortage
p1654
aVfreedom
p1655
aVbojhar
p1656
aVepidural
p1657
aVhocca
p1658
aVdischage
p1659
aVcharar
p1660
aVopted
p1661
aVmisscarriage
p1662
aVadded
p1663
aVultrasonograph
p1664
aVspeacialist
p1665
aVchocklatish
p1666
aVhydroxide
p1667
aVarubin
p1668
aVdouble
p1669
aVrupa
p1670
aVampexin
p1671
aVapppeared
p1672
aVsupositore
p1673
aVvaccinations
p1674
aVvacine
p1675
aVjaigai
p1676
aVparei
p1677
aVadivse
p1678
aVhungryness
p1679
aVacross
p1680
aVfragnant
p1681
aVgestronel
p1682
aVgorbhabosthay
p1683
aVcholse
p1684
aVlenght
p1685
aVcolostorol
p1686
aVdairy
p1687
aVnutritious
p1688
aVjam
p1689
aVgrape
p1690
aVsomossa
p1691
aVkombe
p1692
aVroy
p1693
aVpiss
p1694
aVitd
p1695
aVkichuta
p1696
aVtightening
p1697
aVaki
p1698
aVselected
p1699
aVpressed
p1700
aVosud
p1701
aVouter
p1702
aVhobu
p1703
aVsat
p1704
aVoatmeal
p1705
aVdropped
p1706
aVfolate
p1707
aVquadrant
p1708
aVoishi
p1709
aVpads
p1710
aVpalm
p1711
aVmodhdhe
p1712
aVseparete
p1713
aVawered
p1714
aVdecesion
p1715
aVnodule
p1716
aVabortioned
p1717
aVgor
p1718
aVbiyar
p1719
aVsweats
p1720
aVbecos
p1721
aVleucoria
p1722
aVmedicale
p1723
aVsaggy
p1724
aVincludes
p1725
aVlivetogether
p1726
aVwellknown
p1727
aVcardio
p1728
aVdivert
p1729
aVprogestogen
p1730
aVpurchasing
p1731
aVprogesteron
p1732
aVrenata
p1733
aVdoges
p1734
aVpura
p1735
aVdosages
p1736
aVproti
p1737
aVekono
p1738
aVtilaka
p1739
aVprogram
p1740
aVpregnat
p1741
aVdisable
p1742
aVprofession
p1743
aVeasyest
p1744
aVprevents
p1745
aVprequition
p1746
aVprequitio
p1747
aVdiclaration
p1748
aVdeliveries
p1749
aVprivacy
p1750
aVreflect
p1751
aVdilemma
p1752
aVrefrain
p1753
aVprocedures
p1754
aVdirected
p1755
aVtuednesday
p1756
aVdep
p1757
aVregulate
p1758
aVresut
p1759
aVefficient
p1760
aVdisi
p1761
aVtrained
p1762
aVrelationshp
p1763
aVraisa
p1764
aVkeen
p1765
aVemargency
p1766
aVstudient
p1767
aVmarrriage
p1768
aVmarriged
p1769
aVmarrade
p1770
aVmarine
p1771
aVmanopause
p1772
aVmani
p1773
aVstore
p1774
aVhochena
p1775
aVmadiation
p1776
aVlucky
p1777
aVsima
p1778
aVsterilization
p1779
aVsistem
p1780
aVlocally
p1781
aVimplanon
p1782
aVliterally
p1783
aVliptogeter
p1784
aVlynes
p1785
aVlimits
p1786
aVmaye
p1787
aVmba
p1788
aVmistook
p1789
aVmisoprostrol
p1790
aVhassle
p1791
aVhaveva
p1792
aVsuit
p1793
aVmethode
p1794
aVmerystopes
p1795
aVsuggation
p1796
aVhoccena
p1797
aVmervelon
p1798
aVhesitation
p1799
aVmelasma
p1800
aVsucceeded
p1801
aVmedicen
p1802
aVhoache
p1803
aVhoachelo
p1804
aVmeastration
p1805
aVshorir
p1806
aVmere
p1807
aVlevonorgestrel
p1808
aVindicator
p1809
aVsleem
p1810
aVkomate
p1811
aVsombabona
p1812
aVsomewhere
p1813
aVsomor
p1814
aVjar
p1815
aVsomporke
p1816
aVjaw
p1817
aVsondehor
p1818
aVius
p1819
aVjetar
p1820
aVkhay
p1821
aVkhawate
p1822
aVkhaoyar
p1823
aVkhaoya
p1824
aVjorna
p1825
aVkhan
p1826
aVkete
p1827
aVkabo
p1828
aVkhotu
p1829
aVitercourse
p1830
aVisovant
p1831
aVirrigular
p1832
aVinfact
p1833
aVinflammations
p1834
aVletar
p1835
aVinfomation
p1836
aVinjectable
p1837
aVinsisted
p1838
aVinsists
p1839
aVintarested
p1840
aVintend
p1841
aVinteract
p1842
aVintercorse
p1843
aVintercourses
p1844
aVkrla
p1845
aVsplattered
p1846
aVkothy
p1847
aVzone
p1848
aVspilled
p1849
aVkoreo
p1850
aVkorechelam
p1851
aVmoddhe
p1852
aVpreganant
p1853
aVharassed
p1854
aVhappenings
p1855
aVpeulli
p1856
aVexplained
p1857
aVsa
p1858
aVextended
p1859
aVsaad
p1860
aVpermanennt
p1861
aVperio
p1862
aVfamale
p1863
aVpeye
p1864
aVpelamna
p1865
aVpeels
p1866
aVfe
p1867
aVsagetion
p1868
aVterminex
p1869
aVterminate
p1870
aVfelbe
p1871
aVparticular
p1872
aVfelse
p1873
aVpegnancy
p1874
aVsajjad
p1875
aVpharmaceutical
p1876
aVrural
p1877
aVpragnet
p1878
aVpragnecy
p1879
aVrony
p1880
aVpovera
p1881
aVemmergency
p1882
aVposibility
p1883
aVporcha
p1884
aVpointers
p1885
aVpharmacies
p1886
aVengr
p1887
aVplzzhelp
p1888
aVplasure
p1889
aVplant
p1890
aVplague
p1891
aVthrusday
p1892
aVestablishment
p1893
aVpils
p1894
aVpiller
p1895
aVplzzzzzzzzz
p1896
aVfemipil
p1897
aVparma
p1898
aVparini
p1899
aVgen
p1900
aVobstracle
p1901
aVsecurity
p1902
aVnorplant
p1903
aVsytrom
p1904
aVgiechilo
p1905
aVsystems
p1906
aVgivig
p1907
aVodhidoptor
p1908
aVnormance
p1909
aVniontron
p1910
aVnilei
p1911
aVsute
p1912
aVnb
p1913
aVservicing
p1914
aVsuspect
p1915
aVguve
p1916
aVsurface
p1917
aVglass
p1918
aVtakin
p1919
aVofficially
p1920
aVschering
p1921
aVparena
p1922
aVparagraph
p1923
aVfertilized
p1924
aVfist
p1925
aVfitted
p1926
aVsametime
p1927
aVpackets
p1928
aVpackage
p1929
aVpacci
p1930
aVoverlap
p1931
aVovasted
p1932
aVovastat
p1933
aVsansation
p1934
aVtaw
p1935
aVforgets
p1936
aVfota
p1937
aVtara
p1938
aVtana
p1939
aVoligocare
p1940
aVmodhhe
p1941
aVghore
p1942
aVzzaman
p1943
aVremembers
p1944
aVcontine
p1945
aVbought
p1946
aVwarred
p1947
aVband
p1948
aValternate
p1949
aVconfidential
p1950
aVconeept
p1951
aVwjy
p1952
aVconditon
p1953
aVwithdrew
p1954
aVcondim
p1955
aVconcerns
p1956
aVconceptive
p1957
aVbio
p1958
aVbrastfeed
p1959
aVdeath
p1960
aVvasectomy
p1961
aVunintentionally
p1962
aVcomplaining
p1963
aVbackpain
p1964
aVwiped
p1965
aVanesthesia
p1966
aVwiii
p1967
aVunprotection
p1968
aVcodom
p1969
aVbujassa
p1970
aVantibirth
p1971
aValam
p1972
aVabnominal
p1973
aVcontrill
p1974
aVakjon
p1975
aVzaman
p1976
aVacquire
p1977
aVaccompany
p1978
aVcytomis
p1979
aVdara
p1980
aVbela
p1981
aVtwick
p1982
aVaccidently
p1983
aVadversely
p1984
aVvulnerable
p1985
aVafters
p1986
aVcreaking
p1987
aVzfolate
p1988
aVagee
p1989
aVwamt
p1990
aVwantedly
p1991
aVbayer
p1992
aVbolta
p1993
aVuncondom
p1994
aVajk
p1995
aVcordial
p1996
aVbirthcontrol
p1997
aVakbar
p1998
aVakbaro
p1999
aVware
p2000
aVwarmest
p2001
aVakirokom
p2002
aVcontroller
p2003
aVbushra
p2004
aVbreastfedding
p2005
aVacedently
p2006
aVcheaper
p2007
aVchele
p2008
aVarriving
p2009
aVart
p2010
aVusefull
p2011
aVashea
p2012
aVchhara
p2013
aVweren
p2014
aVwed
p2015
aVchief
p2016
aVchield
p2017
aVappropiate
p2018
aVweaght
p2019
aVbetwn
p2020
aVapo
p2021
aVupr
p2022
aVtuku
p2023
aVassure
p2024
aVcasual
p2025
aVbabay
p2026
aVovulution
p2027
aVacceptable
p2028
aVsixth
p2029
aVpassaries
p2030
aVveginar
p2031
aVmaster
p2032
aVfulfill
p2033
aVparjanta
p2034
aVsotti
p2035
aVmya
p2036
aVmasturbated
p2037
aVirritate
p2038
aVunpleasant
p2039
aVease
p2040
aVguidance
p2041
aVprobly
p2042
aVabostay
p2043
aVmozid
p2044
aVticarara
p2045
aVashraful
p2046
aVholota
p2047
aVunattainably
p2048
aVattaining
p2049
aVakika
p2050
aVaid
p2051
aVpoverty
p2052
aVblank
p2053
aVdack
p2054
aVmumbai
p2055
aVthreats
p2056
aVnadu
p2057
aVcorner
p2058
aVdoct
p2059
aVwelcome
p2060
aVwellbeing
p2061
aVpolitica
p2062
aVexplore
p2063
aVhyderabad
p2064
aVbeast
p2065
aVmuslims
p2066
aVyo
p2067
aVreward
p2068
aVassalamualykum
p2069
aVnamber
p2070
aVpriya
p2071
aVassa
p2072
aVmahmudul
p2073
aVvsk
p2074
aVyearly
p2075
aVsiaam
p2076
aVhyper
p2077
aVeikhane
p2078
aVdow
p2079
aVelaborate
p2080
aVkindest
p2081
aVwaistline
p2082
aVinbox
p2083
aVmanikanta
p2084
aVtikachile
p2085
aVemails
p2086
aVafroja
p2087
aVyong
p2088
aVrewards
p2089
aVhotel
p2090
aVmuslm
p2091
aVcrashes
p2092
aVmotel
p2093
aVinstalled
p2094
aVplsss
p2095
aVformy
p2096
aVsaikat
p2097
aVjahid
p2098
aVcomplemented
p2099
aVunmindful
p2100
aVmerephelara
p2101
aVamro
p2102
aVtamil
p2103
aVinfluences
p2104
aVharis
p2105
aVgametic
p2106
aVana
p2107
aVanam
p2108
aVbachan
p2109
aVjannati
p2110
aVinitiating
p2111
aVspeedy
p2112
aVghosh
p2113
aVgirals
p2114
aVansar
p2115
aVvalor
p2116
aVcmc
p2117
aVpacchi
p2118
aVsamiya
p2119
aVchronically
p2120
aVsweety
p2121
aVintarabo
p2122
aVgrile
p2123
aVchuck
p2124
aVsavar
p2125
aVsurely
p2126
aVobscene
p2127
aVachen
p2128
aVobligations
p2129
aVhesitate
p2130
aVuncontrolled
p2131
aVnosic
p2132
aVakond
p2133
aVpioneering
p2134
aVsue
p2135
aValfine
p2136
aVinstall
p2137
aVconstitution
p2138
aVcampus
p2139
aVwoodchuck
p2140
aVwood
p2141
aVjubayer
p2142
aVbounty
p2143
aVhelpe
p2144
aVperpetuating
p2145
aVfinic
p2146
aVtata
p2147
aVsrh
p2148
aVindependent
p2149
aVjenesh
p2150
aVamaree
p2151
aVshamsunnaher
p2152
aVrubayat
p2153
aVnuw
p2154
aVheist
p2155
aVbracu
p2156
aVhelf
p2157
aVnum
p2158
aVnuber
p2159
aVboyz
p2160
aVsadman
p2161
aVpic
p2162
aVjooning
p2163
aVladies
p2164
aVdeliverance
p2165
aVdecci
p2166
aVdewa
p2167
aVrelaxable
p2168
aVabdul
p2169
aVlime
p2170
aVsky
p2171
aVdemonic
p2172
aVsmting
p2173
aVslender
p2174
a.